ARM GAS  C:\Users\hp\AppData\Local\Temp\ccOWzvx9.s 			page 1


   1              		.syntax unified
   2              		.cpu cortex-m3
   3              		.fpu softvfp
   4              		.eabi_attribute 20, 1
   5              		.eabi_attribute 21, 1
   6              		.eabi_attribute 23, 3
   7              		.eabi_attribute 24, 1
   8              		.eabi_attribute 25, 1
   9              		.eabi_attribute 26, 1
  10              		.eabi_attribute 30, 1
  11              		.eabi_attribute 34, 1
  12              		.eabi_attribute 18, 4
  13              		.thumb
  14              		.syntax unified
  15              		.file	"adc.c"
  16              		.text
  17              	.Ltext0:
  18              		.cfi_sections	.debug_frame
  19              		.section	.text.adc_GainCompensation,"ax",%progbits
  20              		.align	2
  21              		.thumb
  22              		.thumb_func
  23              		.type	adc_GainCompensation, %function
  24              	adc_GainCompensation:
  25              	.LFB21:
  26              		.file 1 "Generated_Source\\PSoC5\\adc.c"
   1:Generated_Source\PSoC5/adc.c **** /*******************************************************************************
   2:Generated_Source\PSoC5/adc.c **** * File Name: adc.c
   3:Generated_Source\PSoC5/adc.c **** * Version 3.20
   4:Generated_Source\PSoC5/adc.c **** *
   5:Generated_Source\PSoC5/adc.c **** * Description:
   6:Generated_Source\PSoC5/adc.c **** *  This file provides the source code to the API for the Delta-Sigma ADC
   7:Generated_Source\PSoC5/adc.c **** *  Component.
   8:Generated_Source\PSoC5/adc.c **** *
   9:Generated_Source\PSoC5/adc.c **** * Note:
  10:Generated_Source\PSoC5/adc.c **** *
  11:Generated_Source\PSoC5/adc.c **** ********************************************************************************
  12:Generated_Source\PSoC5/adc.c **** * Copyright 2008-2015, Cypress Semiconductor Corporation.  All rights reserved.
  13:Generated_Source\PSoC5/adc.c **** * You may use this file only in accordance with the license, terms, conditions,
  14:Generated_Source\PSoC5/adc.c **** * disclaimers, and limitations in the end user license agreement accompanying
  15:Generated_Source\PSoC5/adc.c **** * the software package with which this file was provided.
  16:Generated_Source\PSoC5/adc.c **** *******************************************************************************/
  17:Generated_Source\PSoC5/adc.c **** 
  18:Generated_Source\PSoC5/adc.c **** #include "adc.h"
  19:Generated_Source\PSoC5/adc.c **** 
  20:Generated_Source\PSoC5/adc.c **** #if(adc_DEFAULT_INTERNAL_CLK)
  21:Generated_Source\PSoC5/adc.c ****     #include "adc_theACLK.h"
  22:Generated_Source\PSoC5/adc.c **** #endif /* adc_DEFAULT_INTERNAL_CLK */
  23:Generated_Source\PSoC5/adc.c **** 
  24:Generated_Source\PSoC5/adc.c **** #include "adc_Ext_CP_Clk.h"
  25:Generated_Source\PSoC5/adc.c **** 
  26:Generated_Source\PSoC5/adc.c **** #if(adc_DEFAULT_INPUT_MODE)
  27:Generated_Source\PSoC5/adc.c ****     #include "adc_AMux.h"
  28:Generated_Source\PSoC5/adc.c **** #endif /* adc_DEFAULT_INPUT_MODE */
  29:Generated_Source\PSoC5/adc.c **** 
  30:Generated_Source\PSoC5/adc.c **** 
  31:Generated_Source\PSoC5/adc.c **** /***************************************
ARM GAS  C:\Users\hp\AppData\Local\Temp\ccOWzvx9.s 			page 2


  32:Generated_Source\PSoC5/adc.c **** * Global data allocation
  33:Generated_Source\PSoC5/adc.c **** ***************************************/
  34:Generated_Source\PSoC5/adc.c **** 
  35:Generated_Source\PSoC5/adc.c **** /* Software flag for checking conversion completed or not */
  36:Generated_Source\PSoC5/adc.c **** volatile uint8 adc_convDone = 0u;
  37:Generated_Source\PSoC5/adc.c **** 
  38:Generated_Source\PSoC5/adc.c **** /* Software flag to stop conversion for single sample conversion mode
  39:Generated_Source\PSoC5/adc.c **** *   with resolution above 16 bits 
  40:Generated_Source\PSoC5/adc.c **** */
  41:Generated_Source\PSoC5/adc.c **** volatile uint8 adc_stopConversion = 0u;
  42:Generated_Source\PSoC5/adc.c **** 
  43:Generated_Source\PSoC5/adc.c **** /* To run the initialization block only at the start up */
  44:Generated_Source\PSoC5/adc.c **** uint8 adc_initVar = 0u;
  45:Generated_Source\PSoC5/adc.c **** 
  46:Generated_Source\PSoC5/adc.c **** /* To check whether ADC started or not before switching the configuration */
  47:Generated_Source\PSoC5/adc.c **** volatile uint8 adc_started = 0u;
  48:Generated_Source\PSoC5/adc.c **** 
  49:Generated_Source\PSoC5/adc.c **** /* Flag to hold ADC config number. By default active config is 1. */
  50:Generated_Source\PSoC5/adc.c **** volatile uint8 adc_Config = 1u;
  51:Generated_Source\PSoC5/adc.c **** 
  52:Generated_Source\PSoC5/adc.c **** volatile int32 adc_Offset;
  53:Generated_Source\PSoC5/adc.c **** volatile int32 adc_CountsPerVolt;
  54:Generated_Source\PSoC5/adc.c **** 
  55:Generated_Source\PSoC5/adc.c **** 
  56:Generated_Source\PSoC5/adc.c **** /***************************************
  57:Generated_Source\PSoC5/adc.c **** * Local data allocation
  58:Generated_Source\PSoC5/adc.c **** ***************************************/
  59:Generated_Source\PSoC5/adc.c **** 
  60:Generated_Source\PSoC5/adc.c **** /* The array with precalculated gain compensation coefficients */
  61:Generated_Source\PSoC5/adc.c **** static adc_GCOR_STRUCT adc_gcor[adc_DEFAULT_NUM_CONFIGS];
  62:Generated_Source\PSoC5/adc.c **** 
  63:Generated_Source\PSoC5/adc.c **** 
  64:Generated_Source\PSoC5/adc.c **** 
  65:Generated_Source\PSoC5/adc.c **** /***************************************
  66:Generated_Source\PSoC5/adc.c **** * Forward function references
  67:Generated_Source\PSoC5/adc.c **** ***************************************/
  68:Generated_Source\PSoC5/adc.c **** static void adc_InitConfig(uint8 config) ;
  69:Generated_Source\PSoC5/adc.c **** static void adc_GainCompensation(uint8 inputRange, uint16 idealDecGain, uint16 idealOddDecGain, 
  70:Generated_Source\PSoC5/adc.c ****                             uint8 resolution, uint8 config) ;
  71:Generated_Source\PSoC5/adc.c **** static void adc_SetDSMRef0Reg(uint8 value) ;
  72:Generated_Source\PSoC5/adc.c **** 
  73:Generated_Source\PSoC5/adc.c **** 
  74:Generated_Source\PSoC5/adc.c **** /******************************************************************************
  75:Generated_Source\PSoC5/adc.c **** * Function Name: adc_Init
  76:Generated_Source\PSoC5/adc.c **** *******************************************************************************
  77:Generated_Source\PSoC5/adc.c **** *
  78:Generated_Source\PSoC5/adc.c **** * Summary:
  79:Generated_Source\PSoC5/adc.c **** *  Initialize component's parameters to the parameters set by user in the
  80:Generated_Source\PSoC5/adc.c **** *  customizer of the component placed onto schematic. Usually called in
  81:Generated_Source\PSoC5/adc.c **** * adc_Start().
  82:Generated_Source\PSoC5/adc.c **** *
  83:Generated_Source\PSoC5/adc.c **** *
  84:Generated_Source\PSoC5/adc.c **** * Parameters:
  85:Generated_Source\PSoC5/adc.c **** *  None
  86:Generated_Source\PSoC5/adc.c **** *
  87:Generated_Source\PSoC5/adc.c **** * Return:
  88:Generated_Source\PSoC5/adc.c **** *  None
ARM GAS  C:\Users\hp\AppData\Local\Temp\ccOWzvx9.s 			page 3


  89:Generated_Source\PSoC5/adc.c **** *
  90:Generated_Source\PSoC5/adc.c **** *******************************************************************************/
  91:Generated_Source\PSoC5/adc.c **** void adc_Init(void) 
  92:Generated_Source\PSoC5/adc.c **** {
  93:Generated_Source\PSoC5/adc.c **** 
  94:Generated_Source\PSoC5/adc.c ****     adc_Config = 1u;
  95:Generated_Source\PSoC5/adc.c ****     adc_convDone = 0u;
  96:Generated_Source\PSoC5/adc.c **** 
  97:Generated_Source\PSoC5/adc.c ****     adc_Ext_CP_Clk_SetMode(CYCLK_DUTY);
  98:Generated_Source\PSoC5/adc.c **** 
  99:Generated_Source\PSoC5/adc.c ****     /* This is only valid if there is an internal clock */
 100:Generated_Source\PSoC5/adc.c ****     #if(adc_DEFAULT_INTERNAL_CLK)
 101:Generated_Source\PSoC5/adc.c ****         adc_theACLK_SetMode(CYCLK_DUTY);
 102:Generated_Source\PSoC5/adc.c ****     #endif /* adc_DEFAULT_INTERNAL_CLK */
 103:Generated_Source\PSoC5/adc.c **** 
 104:Generated_Source\PSoC5/adc.c ****     #if(adc_IRQ_REMOVE == 0u)
 105:Generated_Source\PSoC5/adc.c ****         /* Set interrupt priority */
 106:Generated_Source\PSoC5/adc.c ****         CyIntSetPriority(adc_INTC_NUMBER, adc_INTC_PRIOR_NUMBER);
 107:Generated_Source\PSoC5/adc.c ****     #endif   /* End adc_IRQ_REMOVE */
 108:Generated_Source\PSoC5/adc.c **** 
 109:Generated_Source\PSoC5/adc.c ****     /* Init static registers with common configuration */
 110:Generated_Source\PSoC5/adc.c ****     adc_DSM_DEM0_REG    = adc_CFG1_DSM_DEM0;
 111:Generated_Source\PSoC5/adc.c ****     adc_DSM_DEM1_REG    = adc_CFG1_DSM_DEM1;
 112:Generated_Source\PSoC5/adc.c ****     adc_DSM_MISC_REG    = adc_CFG1_DSM_MISC;
 113:Generated_Source\PSoC5/adc.c ****     adc_DSM_CLK_REG    |= adc_CFG1_DSM_CLK;
 114:Generated_Source\PSoC5/adc.c ****     adc_DSM_REF1_REG    = adc_CFG1_DSM_REF1;
 115:Generated_Source\PSoC5/adc.c **** 
 116:Generated_Source\PSoC5/adc.c ****     adc_DSM_OUT0_REG    = adc_CFG1_DSM_OUT0;
 117:Generated_Source\PSoC5/adc.c ****     adc_DSM_OUT1_REG    = adc_CFG1_DSM_OUT1;
 118:Generated_Source\PSoC5/adc.c **** 
 119:Generated_Source\PSoC5/adc.c ****     adc_DSM_CR0_REG     = adc_CFG1_DSM_CR0;
 120:Generated_Source\PSoC5/adc.c ****     adc_DSM_CR1_REG     = adc_CFG1_DSM_CR1;
 121:Generated_Source\PSoC5/adc.c **** #if(adc_MI_ENABLE != 0u) /* Enable Modulator Input */
 122:Generated_Source\PSoC5/adc.c ****     adc_DSM_CR3_REG     |= adc_DSM_MODBIT_EN;
 123:Generated_Source\PSoC5/adc.c **** #else
 124:Generated_Source\PSoC5/adc.c ****     adc_DSM_CR3_REG     = adc_CFG1_DSM_CR3;
 125:Generated_Source\PSoC5/adc.c **** #endif /* adc_MI_ENABLE != 0u*/    
 126:Generated_Source\PSoC5/adc.c ****     adc_DSM_CR8_REG     = adc_CFG1_DSM_CR8;
 127:Generated_Source\PSoC5/adc.c ****     adc_DSM_CR9_REG     = adc_CFG1_DSM_CR9;
 128:Generated_Source\PSoC5/adc.c ****     adc_DSM_CR13_REG    = adc_CFG1_DSM_CR13;
 129:Generated_Source\PSoC5/adc.c **** 
 130:Generated_Source\PSoC5/adc.c ****     adc_DEC_SR_REG      = adc_CFG1_DEC_SR;
 131:Generated_Source\PSoC5/adc.c **** 
 132:Generated_Source\PSoC5/adc.c ****     /* Calculate Gain compensation coefficients for all configurations */
 133:Generated_Source\PSoC5/adc.c ****     adc_GainCompensation(adc_CFG1_INPUT_RANGE,
 134:Generated_Source\PSoC5/adc.c ****                                       adc_CFG1_IDEAL_DEC_GAIN,
 135:Generated_Source\PSoC5/adc.c ****                                       adc_CFG1_IDEAL_ODDDEC_GAIN,
 136:Generated_Source\PSoC5/adc.c ****                                       adc_CFG1_RESOLUTION,
 137:Generated_Source\PSoC5/adc.c ****                                       adc_CFG1);
 138:Generated_Source\PSoC5/adc.c ****     #if(adc_DEFAULT_NUM_CONFIGS > 1)
 139:Generated_Source\PSoC5/adc.c ****         adc_GainCompensation(adc_CFG2_INPUT_RANGE,
 140:Generated_Source\PSoC5/adc.c ****                                           adc_CFG2_IDEAL_DEC_GAIN,
 141:Generated_Source\PSoC5/adc.c ****                                           adc_CFG2_IDEAL_ODDDEC_GAIN,
 142:Generated_Source\PSoC5/adc.c ****                                           adc_CFG2_RESOLUTION,
 143:Generated_Source\PSoC5/adc.c ****                                           adc_CFG2);
 144:Generated_Source\PSoC5/adc.c ****     #endif /* adc_DEFAULT_NUM_CONFIGS > 1 */
 145:Generated_Source\PSoC5/adc.c ****     #if(adc_DEFAULT_NUM_CONFIGS > 2)
ARM GAS  C:\Users\hp\AppData\Local\Temp\ccOWzvx9.s 			page 4


 146:Generated_Source\PSoC5/adc.c ****         adc_GainCompensation(adc_CFG3_INPUT_RANGE,
 147:Generated_Source\PSoC5/adc.c ****                                           adc_CFG3_IDEAL_DEC_GAIN,
 148:Generated_Source\PSoC5/adc.c ****                                           adc_CFG3_IDEAL_ODDDEC_GAIN,
 149:Generated_Source\PSoC5/adc.c ****                                           adc_CFG3_RESOLUTION,
 150:Generated_Source\PSoC5/adc.c ****                                           adc_CFG3);
 151:Generated_Source\PSoC5/adc.c ****     #endif /* adc_DEFAULT_NUM_CONFIGS > 2 */
 152:Generated_Source\PSoC5/adc.c ****     #if(adc_DEFAULT_NUM_CONFIGS > 3)
 153:Generated_Source\PSoC5/adc.c ****         adc_GainCompensation(adc_CFG4_INPUT_RANGE,
 154:Generated_Source\PSoC5/adc.c ****                                           adc_CFG4_IDEAL_DEC_GAIN,
 155:Generated_Source\PSoC5/adc.c ****                                           adc_CFG4_IDEAL_ODDDEC_GAIN,
 156:Generated_Source\PSoC5/adc.c ****                                           adc_CFG4_RESOLUTION,
 157:Generated_Source\PSoC5/adc.c ****                                           adc_CFG4);
 158:Generated_Source\PSoC5/adc.c ****     #endif /* adc_DEFAULT_NUM_CONFIGS > 3 */
 159:Generated_Source\PSoC5/adc.c **** 
 160:Generated_Source\PSoC5/adc.c ****     /* Set GCOR register for config1 */
 161:Generated_Source\PSoC5/adc.c ****     adc_DEC_GVAL_REG = adc_gcor[adc_Config - 1u].gval;
 162:Generated_Source\PSoC5/adc.c ****     CY_SET_REG16(adc_DEC_GCOR_16B_PTR, adc_gcor[adc_Config - 1u].gcor);
 163:Generated_Source\PSoC5/adc.c **** 
 164:Generated_Source\PSoC5/adc.c ****     /* Initialize the registers with default customizer settings for config1 */
 165:Generated_Source\PSoC5/adc.c ****     adc_InitConfig(adc_Config);
 166:Generated_Source\PSoC5/adc.c **** }
 167:Generated_Source\PSoC5/adc.c **** 
 168:Generated_Source\PSoC5/adc.c **** 
 169:Generated_Source\PSoC5/adc.c **** /******************************************************************************
 170:Generated_Source\PSoC5/adc.c **** * Function Name: adc_Enable
 171:Generated_Source\PSoC5/adc.c **** *******************************************************************************
 172:Generated_Source\PSoC5/adc.c **** *
 173:Generated_Source\PSoC5/adc.c **** * Summary:
 174:Generated_Source\PSoC5/adc.c **** *  Enables the ADC DelSig block operation.
 175:Generated_Source\PSoC5/adc.c **** *
 176:Generated_Source\PSoC5/adc.c **** *
 177:Generated_Source\PSoC5/adc.c **** * Parameters:
 178:Generated_Source\PSoC5/adc.c **** *  None
 179:Generated_Source\PSoC5/adc.c **** *
 180:Generated_Source\PSoC5/adc.c **** * Return:
 181:Generated_Source\PSoC5/adc.c **** *  None
 182:Generated_Source\PSoC5/adc.c **** *
 183:Generated_Source\PSoC5/adc.c **** *******************************************************************************/
 184:Generated_Source\PSoC5/adc.c **** void adc_Enable(void) 
 185:Generated_Source\PSoC5/adc.c **** {
 186:Generated_Source\PSoC5/adc.c **** 	uint8 config;
 187:Generated_Source\PSoC5/adc.c ****     uint8 enableInterrupts;
 188:Generated_Source\PSoC5/adc.c ****     enableInterrupts = CyEnterCriticalSection();
 189:Generated_Source\PSoC5/adc.c **** 
 190:Generated_Source\PSoC5/adc.c ****     /* Read volatile variable to the local variable */
 191:Generated_Source\PSoC5/adc.c ****     config = adc_Config;
 192:Generated_Source\PSoC5/adc.c ****     
 193:Generated_Source\PSoC5/adc.c ****     /* Enable active mode power for ADC */
 194:Generated_Source\PSoC5/adc.c ****     adc_PWRMGR_DEC_REG |= adc_ACT_PWR_DEC_EN;
 195:Generated_Source\PSoC5/adc.c ****     adc_PWRMGR_DSM_REG |= adc_ACT_PWR_DSM_EN;
 196:Generated_Source\PSoC5/adc.c **** 
 197:Generated_Source\PSoC5/adc.c ****      /* Enable alternative active mode power for ADC */
 198:Generated_Source\PSoC5/adc.c ****     adc_STBY_PWRMGR_DEC_REG |= adc_STBY_PWR_DEC_EN;
 199:Generated_Source\PSoC5/adc.c ****     adc_STBY_PWRMGR_DSM_REG |= adc_STBY_PWR_DSM_EN;
 200:Generated_Source\PSoC5/adc.c **** 
 201:Generated_Source\PSoC5/adc.c ****     /* Disable PRES, Enable power to VCMBUF0, REFBUF0 and REFBUF1, enable PRES */
 202:Generated_Source\PSoC5/adc.c ****     adc_RESET_CR4_REG |= adc_IGNORE_PRESA1;
ARM GAS  C:\Users\hp\AppData\Local\Temp\ccOWzvx9.s 			page 5


 203:Generated_Source\PSoC5/adc.c ****     adc_RESET_CR5_REG |= adc_IGNORE_PRESA2;
 204:Generated_Source\PSoC5/adc.c **** 
 205:Generated_Source\PSoC5/adc.c ****     adc_DSM_CR17_REG |= (adc_DSM_EN_BUF_VREF | adc_DSM_EN_BUF_VCM);
 206:Generated_Source\PSoC5/adc.c **** 
 207:Generated_Source\PSoC5/adc.c ****     /* Code to disable the REFBUF0 if reference chosen is External ref */
 208:Generated_Source\PSoC5/adc.c ****     #if (((adc_CFG1_REFERENCE == adc_EXT_REF_ON_P03) || \
 209:Generated_Source\PSoC5/adc.c ****           (adc_CFG1_REFERENCE == adc_EXT_REF_ON_P32)) || \
 210:Generated_Source\PSoC5/adc.c ****          ((adc_DEFAULT_NUM_CONFIGS > 1) && \
 211:Generated_Source\PSoC5/adc.c ****           ((adc_CFG2_REFERENCE == adc_EXT_REF_ON_P03) ||  \
 212:Generated_Source\PSoC5/adc.c ****            (adc_CFG2_REFERENCE == adc_EXT_REF_ON_P32))) || \
 213:Generated_Source\PSoC5/adc.c ****          ((adc_DEFAULT_NUM_CONFIGS > 2) && \
 214:Generated_Source\PSoC5/adc.c ****           ((adc_CFG3_REFERENCE == adc_EXT_REF_ON_P03) ||  \
 215:Generated_Source\PSoC5/adc.c ****            (adc_CFG3_REFERENCE == adc_EXT_REF_ON_P32))) || \
 216:Generated_Source\PSoC5/adc.c ****          ((adc_DEFAULT_NUM_CONFIGS > 3) && \
 217:Generated_Source\PSoC5/adc.c ****           ((adc_CFG4_REFERENCE == adc_EXT_REF_ON_P03) || \
 218:Generated_Source\PSoC5/adc.c ****            (adc_CFG4_REFERENCE == adc_EXT_REF_ON_P32))))
 219:Generated_Source\PSoC5/adc.c ****         if (((config == 1u) &&
 220:Generated_Source\PSoC5/adc.c ****             ((adc_CFG1_REFERENCE == adc_EXT_REF_ON_P03) ||
 221:Generated_Source\PSoC5/adc.c ****              (adc_CFG1_REFERENCE == adc_EXT_REF_ON_P32))) ||
 222:Generated_Source\PSoC5/adc.c ****             ((config == 2u) &&
 223:Generated_Source\PSoC5/adc.c ****             ((adc_CFG2_REFERENCE == adc_EXT_REF_ON_P03) ||
 224:Generated_Source\PSoC5/adc.c ****              (adc_CFG2_REFERENCE == adc_EXT_REF_ON_P32))) ||
 225:Generated_Source\PSoC5/adc.c ****             ((config == 3u) &&
 226:Generated_Source\PSoC5/adc.c ****             ((adc_CFG3_REFERENCE == adc_EXT_REF_ON_P03) ||
 227:Generated_Source\PSoC5/adc.c ****              (adc_CFG3_REFERENCE == adc_EXT_REF_ON_P32))) ||
 228:Generated_Source\PSoC5/adc.c ****             ((config == 4u) &&
 229:Generated_Source\PSoC5/adc.c ****             ((adc_CFG4_REFERENCE == adc_EXT_REF_ON_P03) ||
 230:Generated_Source\PSoC5/adc.c ****              (adc_CFG4_REFERENCE == adc_EXT_REF_ON_P32))))
 231:Generated_Source\PSoC5/adc.c ****         {
 232:Generated_Source\PSoC5/adc.c ****             /* Disable the REFBUF0 */
 233:Generated_Source\PSoC5/adc.c ****             adc_DSM_CR17_REG &= (uint8)~adc_DSM_EN_BUF_VREF;
 234:Generated_Source\PSoC5/adc.c ****         }
 235:Generated_Source\PSoC5/adc.c ****     #endif /* External ref */
 236:Generated_Source\PSoC5/adc.c **** 
 237:Generated_Source\PSoC5/adc.c ****     #if (((adc_CFG1_INPUT_RANGE == adc_IR_VSSA_TO_2VREF) || \
 238:Generated_Source\PSoC5/adc.c ****          ((adc_DEFAULT_NUM_CONFIGS > 1) && \
 239:Generated_Source\PSoC5/adc.c ****           (adc_CFG2_INPUT_RANGE == adc_IR_VSSA_TO_2VREF)) || \
 240:Generated_Source\PSoC5/adc.c ****          ((adc_DEFAULT_NUM_CONFIGS > 2) && \
 241:Generated_Source\PSoC5/adc.c ****           (adc_CFG3_INPUT_RANGE == adc_IR_VSSA_TO_2VREF)) || \
 242:Generated_Source\PSoC5/adc.c ****          ((adc_DEFAULT_NUM_CONFIGS > 3) && \
 243:Generated_Source\PSoC5/adc.c ****           (adc_CFG4_INPUT_RANGE == adc_IR_VSSA_TO_2VREF))))
 244:Generated_Source\PSoC5/adc.c ****         if(((config == 1u) &&
 245:Generated_Source\PSoC5/adc.c ****             (adc_CFG1_INPUT_RANGE == adc_IR_VSSA_TO_2VREF) &&
 246:Generated_Source\PSoC5/adc.c ****             ((adc_CFG1_REFERENCE != adc_EXT_REF_ON_P03) &&
 247:Generated_Source\PSoC5/adc.c ****              (adc_CFG1_REFERENCE != adc_EXT_REF_ON_P32))) ||
 248:Generated_Source\PSoC5/adc.c ****              ((config == 2u) &&
 249:Generated_Source\PSoC5/adc.c ****               (adc_CFG2_INPUT_RANGE == adc_IR_VSSA_TO_2VREF) &&
 250:Generated_Source\PSoC5/adc.c ****              ((adc_CFG2_REFERENCE != adc_EXT_REF_ON_P03) &&
 251:Generated_Source\PSoC5/adc.c ****              (adc_CFG2_REFERENCE != adc_EXT_REF_ON_P32))) ||
 252:Generated_Source\PSoC5/adc.c ****              ((config == 3u) &&
 253:Generated_Source\PSoC5/adc.c ****               (adc_CFG3_INPUT_RANGE == adc_IR_VSSA_TO_2VREF) &&
 254:Generated_Source\PSoC5/adc.c ****              ((adc_CFG3_REFERENCE != adc_EXT_REF_ON_P03) &&
 255:Generated_Source\PSoC5/adc.c ****              (adc_CFG3_REFERENCE != adc_EXT_REF_ON_P32))) ||
 256:Generated_Source\PSoC5/adc.c ****              ((config == 4u) &&
 257:Generated_Source\PSoC5/adc.c ****               (adc_CFG4_INPUT_RANGE == adc_IR_VSSA_TO_2VREF) &&
 258:Generated_Source\PSoC5/adc.c ****              ((adc_CFG4_REFERENCE != adc_EXT_REF_ON_P03) &&
 259:Generated_Source\PSoC5/adc.c ****              (adc_CFG4_REFERENCE != adc_EXT_REF_ON_P32))))
ARM GAS  C:\Users\hp\AppData\Local\Temp\ccOWzvx9.s 			page 6


 260:Generated_Source\PSoC5/adc.c ****         {
 261:Generated_Source\PSoC5/adc.c ****             /* Enable the REFBUF1 */
 262:Generated_Source\PSoC5/adc.c ****             adc_DSM_REF0_REG |= adc_DSM_EN_BUF_VREF_INN;
 263:Generated_Source\PSoC5/adc.c ****         }
 264:Generated_Source\PSoC5/adc.c ****     #endif /* VSSA_TO_2VREF */
 265:Generated_Source\PSoC5/adc.c ****     if(config != 0u)
 266:Generated_Source\PSoC5/adc.c ****     {
 267:Generated_Source\PSoC5/adc.c ****         /* Suppress compiler warning */
 268:Generated_Source\PSoC5/adc.c ****     }
 269:Generated_Source\PSoC5/adc.c **** 
 270:Generated_Source\PSoC5/adc.c ****     /* Wait for 3 microseconds */
 271:Generated_Source\PSoC5/adc.c ****     CyDelayUs(adc_PRES_DELAY_TIME);
 272:Generated_Source\PSoC5/adc.c **** 
 273:Generated_Source\PSoC5/adc.c ****     /* Enable the press circuit */
 274:Generated_Source\PSoC5/adc.c ****     adc_RESET_CR4_REG &= (uint8)~adc_IGNORE_PRESA1;
 275:Generated_Source\PSoC5/adc.c ****     adc_RESET_CR5_REG &= (uint8)~adc_IGNORE_PRESA2;
 276:Generated_Source\PSoC5/adc.c **** 
 277:Generated_Source\PSoC5/adc.c ****     /* Enable negative pumps for DSM  */
 278:Generated_Source\PSoC5/adc.c ****     adc_PUMP_CR1_REG  |= ( adc_PUMP_CR1_CLKSEL | adc_PUMP_CR1_FORCE );
 279:Generated_Source\PSoC5/adc.c **** 
 280:Generated_Source\PSoC5/adc.c ****     /* Enable Modulator Chopping if required */
 281:Generated_Source\PSoC5/adc.c ****     adc_DSM_CR2_REG = adc_CFG1_DSM_CR2;
 282:Generated_Source\PSoC5/adc.c **** 
 283:Generated_Source\PSoC5/adc.c ****     /* This is only valid if there is an internal clock */
 284:Generated_Source\PSoC5/adc.c ****     #if(adc_DEFAULT_INTERNAL_CLK)
 285:Generated_Source\PSoC5/adc.c ****         adc_PWRMGR_CLK_REG |= adc_ACT_PWR_CLK_EN;
 286:Generated_Source\PSoC5/adc.c ****         adc_STBY_PWRMGR_CLK_REG |= adc_STBY_PWR_CLK_EN;
 287:Generated_Source\PSoC5/adc.c ****     #endif /* adc_DEFAULT_INTERNAL_CLK */
 288:Generated_Source\PSoC5/adc.c **** 
 289:Generated_Source\PSoC5/adc.c ****     /* Enable the active and alternate active power for charge pump clock */
 290:Generated_Source\PSoC5/adc.c ****     adc_PWRMGR_CHARGE_PUMP_CLK_REG |= adc_ACT_PWR_CHARGE_PUMP_CLK_EN;
 291:Generated_Source\PSoC5/adc.c ****     adc_STBY_PWRMGR_CHARGE_PUMP_CLK_REG |= adc_STBY_PWR_CHARGE_PUMP_CLK_EN;
 292:Generated_Source\PSoC5/adc.c **** 
 293:Generated_Source\PSoC5/adc.c ****     #if(adc_IRQ_REMOVE == 0u)
 294:Generated_Source\PSoC5/adc.c ****         /* Clear a pending interrupt */
 295:Generated_Source\PSoC5/adc.c ****         CyIntClearPending(adc_INTC_NUMBER);
 296:Generated_Source\PSoC5/adc.c ****         /* Enable interrupt */
 297:Generated_Source\PSoC5/adc.c ****         CyIntEnable(adc_INTC_NUMBER);
 298:Generated_Source\PSoC5/adc.c ****     #endif   /* End adc_IRQ_REMOVE */
 299:Generated_Source\PSoC5/adc.c **** 
 300:Generated_Source\PSoC5/adc.c ****     CyExitCriticalSection(enableInterrupts);
 301:Generated_Source\PSoC5/adc.c **** 
 302:Generated_Source\PSoC5/adc.c **** }
 303:Generated_Source\PSoC5/adc.c **** 
 304:Generated_Source\PSoC5/adc.c **** 
 305:Generated_Source\PSoC5/adc.c **** /*******************************************************************************
 306:Generated_Source\PSoC5/adc.c **** * Function Name: adc_Start
 307:Generated_Source\PSoC5/adc.c **** ********************************************************************************
 308:Generated_Source\PSoC5/adc.c **** *
 309:Generated_Source\PSoC5/adc.c **** * Summary:
 310:Generated_Source\PSoC5/adc.c **** *  Performs all required initialization for this component and enables
 311:Generated_Source\PSoC5/adc.c **** *  the power. It configure all the register the first time it is called.
 312:Generated_Source\PSoC5/adc.c **** *  Subsequent calls of the Start function only enable the ADC and turn
 313:Generated_Source\PSoC5/adc.c **** *  on the power. If multiple configurations are selected, it will
 314:Generated_Source\PSoC5/adc.c **** *  configure the ADC for configuration 1 by default, unless the
 315:Generated_Source\PSoC5/adc.c **** *  adc_SelectConfiguration( ) function has been called to change
 316:Generated_Source\PSoC5/adc.c **** *  the default setting.
ARM GAS  C:\Users\hp\AppData\Local\Temp\ccOWzvx9.s 			page 7


 317:Generated_Source\PSoC5/adc.c **** *
 318:Generated_Source\PSoC5/adc.c **** * Parameters:
 319:Generated_Source\PSoC5/adc.c **** *  None
 320:Generated_Source\PSoC5/adc.c **** *
 321:Generated_Source\PSoC5/adc.c **** * Return:
 322:Generated_Source\PSoC5/adc.c **** *  None
 323:Generated_Source\PSoC5/adc.c **** *
 324:Generated_Source\PSoC5/adc.c **** * Global variables:
 325:Generated_Source\PSoC5/adc.c **** *  adc_initVar:  Used to check the initial configuration,
 326:Generated_Source\PSoC5/adc.c **** *  modified when this function is called for the first time.
 327:Generated_Source\PSoC5/adc.c **** *
 328:Generated_Source\PSoC5/adc.c **** *******************************************************************************/
 329:Generated_Source\PSoC5/adc.c **** void adc_Start(void) 
 330:Generated_Source\PSoC5/adc.c **** {
 331:Generated_Source\PSoC5/adc.c ****     if(adc_initVar == 0u)
 332:Generated_Source\PSoC5/adc.c ****     {
 333:Generated_Source\PSoC5/adc.c ****         if(adc_started == 0u)
 334:Generated_Source\PSoC5/adc.c ****         {
 335:Generated_Source\PSoC5/adc.c ****             adc_Init();
 336:Generated_Source\PSoC5/adc.c ****         }
 337:Generated_Source\PSoC5/adc.c ****         adc_initVar = 1u;
 338:Generated_Source\PSoC5/adc.c ****     }
 339:Generated_Source\PSoC5/adc.c **** 
 340:Generated_Source\PSoC5/adc.c ****     /* Enable the ADC */
 341:Generated_Source\PSoC5/adc.c ****     adc_Enable();
 342:Generated_Source\PSoC5/adc.c **** }
 343:Generated_Source\PSoC5/adc.c **** 
 344:Generated_Source\PSoC5/adc.c **** 
 345:Generated_Source\PSoC5/adc.c **** /*******************************************************************************
 346:Generated_Source\PSoC5/adc.c **** * Function Name: adc_Stop
 347:Generated_Source\PSoC5/adc.c **** ********************************************************************************
 348:Generated_Source\PSoC5/adc.c **** *
 349:Generated_Source\PSoC5/adc.c **** * Summary:
 350:Generated_Source\PSoC5/adc.c **** *  This function stops and powers down the ADC component and the internal
 351:Generated_Source\PSoC5/adc.c **** *  clock if the external clock is not selected. If an external clock is
 352:Generated_Source\PSoC5/adc.c **** *  used, it is up to the designer to power down the external clock it
 353:Generated_Source\PSoC5/adc.c **** *  required.
 354:Generated_Source\PSoC5/adc.c **** *
 355:Generated_Source\PSoC5/adc.c **** * Parameters:
 356:Generated_Source\PSoC5/adc.c **** *  None
 357:Generated_Source\PSoC5/adc.c **** *
 358:Generated_Source\PSoC5/adc.c **** * Return:
 359:Generated_Source\PSoC5/adc.c **** *  None
 360:Generated_Source\PSoC5/adc.c **** *
 361:Generated_Source\PSoC5/adc.c **** *******************************************************************************/
 362:Generated_Source\PSoC5/adc.c **** void adc_Stop(void) 
 363:Generated_Source\PSoC5/adc.c **** {
 364:Generated_Source\PSoC5/adc.c ****     uint8 enableInterrupts;
 365:Generated_Source\PSoC5/adc.c ****     enableInterrupts = CyEnterCriticalSection();
 366:Generated_Source\PSoC5/adc.c **** 
 367:Generated_Source\PSoC5/adc.c ****     /* Stop conversions */
 368:Generated_Source\PSoC5/adc.c ****     adc_DEC_CR_REG &= (uint8)~adc_DEC_START_CONV;
 369:Generated_Source\PSoC5/adc.c ****     adc_DEC_SR_REG |=  adc_DEC_INTR_CLEAR;
 370:Generated_Source\PSoC5/adc.c **** 
 371:Generated_Source\PSoC5/adc.c ****     /* Disable PRES, Disable power to VCMBUF0, REFBUF0 and REFBUF1,
 372:Generated_Source\PSoC5/adc.c ****        enable PRES */
 373:Generated_Source\PSoC5/adc.c ****     adc_RESET_CR4_REG |= adc_IGNORE_PRESA1;
ARM GAS  C:\Users\hp\AppData\Local\Temp\ccOWzvx9.s 			page 8


 374:Generated_Source\PSoC5/adc.c ****     adc_RESET_CR5_REG |= adc_IGNORE_PRESA2;
 375:Generated_Source\PSoC5/adc.c **** 
 376:Generated_Source\PSoC5/adc.c ****     adc_DSM_CR17_REG &= (uint8)~(adc_DSM_EN_BUF_VREF | adc_DSM_EN_BUF_VCM);
 377:Generated_Source\PSoC5/adc.c ****     adc_DSM_REF0_REG &= (uint8)~adc_DSM_EN_BUF_VREF_INN;
 378:Generated_Source\PSoC5/adc.c **** 
 379:Generated_Source\PSoC5/adc.c ****     /* Wait for 3 microseconds. */
 380:Generated_Source\PSoC5/adc.c ****     CyDelayUs(adc_PRES_DELAY_TIME);
 381:Generated_Source\PSoC5/adc.c **** 
 382:Generated_Source\PSoC5/adc.c ****     /* Enable the press circuit */
 383:Generated_Source\PSoC5/adc.c ****     adc_RESET_CR4_REG &= (uint8)~adc_IGNORE_PRESA1;
 384:Generated_Source\PSoC5/adc.c ****     adc_RESET_CR5_REG &= (uint8)~adc_IGNORE_PRESA2;
 385:Generated_Source\PSoC5/adc.c **** 
 386:Generated_Source\PSoC5/adc.c ****     /* Disable power to the ADC */
 387:Generated_Source\PSoC5/adc.c ****     adc_PWRMGR_DSM_REG &= (uint8)~adc_ACT_PWR_DSM_EN;
 388:Generated_Source\PSoC5/adc.c **** 
 389:Generated_Source\PSoC5/adc.c ****     /* Disable power to Decimator block */
 390:Generated_Source\PSoC5/adc.c ****     adc_PWRMGR_DEC_REG &= (uint8)~adc_ACT_PWR_DEC_EN;
 391:Generated_Source\PSoC5/adc.c **** 
 392:Generated_Source\PSoC5/adc.c ****     /* Disable alternative active power to the ADC */
 393:Generated_Source\PSoC5/adc.c ****     adc_STBY_PWRMGR_DEC_REG &= (uint8)~adc_STBY_PWR_DEC_EN;
 394:Generated_Source\PSoC5/adc.c ****     adc_STBY_PWRMGR_DSM_REG &= (uint8)~adc_STBY_PWR_DSM_EN;
 395:Generated_Source\PSoC5/adc.c **** 
 396:Generated_Source\PSoC5/adc.c ****    /* Disable negative pumps for DSM  */
 397:Generated_Source\PSoC5/adc.c ****     adc_PUMP_CR1_REG &= (uint8)~(adc_PUMP_CR1_CLKSEL | adc_PUMP_CR1_FORCE );
 398:Generated_Source\PSoC5/adc.c **** 
 399:Generated_Source\PSoC5/adc.c ****     /* This is only valid if there is an internal clock */
 400:Generated_Source\PSoC5/adc.c ****     #if(adc_DEFAULT_INTERNAL_CLK)
 401:Generated_Source\PSoC5/adc.c ****         adc_PWRMGR_CLK_REG &= (uint8)~adc_ACT_PWR_CLK_EN;
 402:Generated_Source\PSoC5/adc.c ****         adc_STBY_PWRMGR_CLK_REG &= (uint8)~adc_STBY_PWR_CLK_EN;
 403:Generated_Source\PSoC5/adc.c ****     #endif /* adc_DEFAULT_INTERNAL_CLK */
 404:Generated_Source\PSoC5/adc.c **** 
 405:Generated_Source\PSoC5/adc.c ****     /* Disable Modulator Chopping */
 406:Generated_Source\PSoC5/adc.c ****     adc_DSM_CR2_REG &= (uint8)~adc_DSM_MOD_CHOP_EN;
 407:Generated_Source\PSoC5/adc.c ****     /* Disable power to charge pump clock */
 408:Generated_Source\PSoC5/adc.c ****     adc_PWRMGR_CHARGE_PUMP_CLK_REG &= (uint8)~adc_ACT_PWR_CHARGE_PUMP_CLK_EN;
 409:Generated_Source\PSoC5/adc.c ****     adc_STBY_PWRMGR_CHARGE_PUMP_CLK_REG &= (uint8)~adc_STBY_PWR_CHARGE_PUMP_CLK_EN;
 410:Generated_Source\PSoC5/adc.c ****     
 411:Generated_Source\PSoC5/adc.c ****     CyExitCriticalSection(enableInterrupts);
 412:Generated_Source\PSoC5/adc.c **** }
 413:Generated_Source\PSoC5/adc.c **** 
 414:Generated_Source\PSoC5/adc.c **** 
 415:Generated_Source\PSoC5/adc.c **** /*******************************************************************************
 416:Generated_Source\PSoC5/adc.c **** * Function Name: adc_SetBufferGain
 417:Generated_Source\PSoC5/adc.c **** ********************************************************************************
 418:Generated_Source\PSoC5/adc.c **** *
 419:Generated_Source\PSoC5/adc.c **** * Summary:
 420:Generated_Source\PSoC5/adc.c **** *  Sets input buffer gain.
 421:Generated_Source\PSoC5/adc.c **** *
 422:Generated_Source\PSoC5/adc.c **** * Parameters:
 423:Generated_Source\PSoC5/adc.c **** *  gain:  Two bit value to select a gain of 1, 2, 4, or 8.
 424:Generated_Source\PSoC5/adc.c **** *
 425:Generated_Source\PSoC5/adc.c **** * Return:
 426:Generated_Source\PSoC5/adc.c **** *  None
 427:Generated_Source\PSoC5/adc.c **** *
 428:Generated_Source\PSoC5/adc.c **** *******************************************************************************/
 429:Generated_Source\PSoC5/adc.c **** void adc_SetBufferGain(uint8 gain) 
 430:Generated_Source\PSoC5/adc.c **** {
ARM GAS  C:\Users\hp\AppData\Local\Temp\ccOWzvx9.s 			page 9


 431:Generated_Source\PSoC5/adc.c ****     uint8 tmpReg;
 432:Generated_Source\PSoC5/adc.c ****     tmpReg = adc_DSM_BUF1_REG & (uint8)~adc_DSM_GAIN_MASK;
 433:Generated_Source\PSoC5/adc.c ****     tmpReg |= (uint8)(gain << adc_DSM_GAIN_SHIFT) & adc_DSM_GAIN_MASK;
 434:Generated_Source\PSoC5/adc.c ****     adc_DSM_BUF1_REG = tmpReg;
 435:Generated_Source\PSoC5/adc.c **** }
 436:Generated_Source\PSoC5/adc.c **** 
 437:Generated_Source\PSoC5/adc.c **** 
 438:Generated_Source\PSoC5/adc.c **** /*******************************************************************************
 439:Generated_Source\PSoC5/adc.c **** * Function Name: adc_SetCoherency
 440:Generated_Source\PSoC5/adc.c **** ********************************************************************************
 441:Generated_Source\PSoC5/adc.c **** *
 442:Generated_Source\PSoC5/adc.c **** * Summary:
 443:Generated_Source\PSoC5/adc.c **** *  This function allows the user to change which of the ADC's 3 word
 444:Generated_Source\PSoC5/adc.c **** *  result will trigger a coherency unlock. The ADC's result will not be
 445:Generated_Source\PSoC5/adc.c **** *  updated until the set byte is read either by the ADC or DMA. 
 446:Generated_Source\PSoC5/adc.c **** *  By default the LSB is the coherency byte for right alignment data format. 
 447:Generated_Source\PSoC5/adc.c **** *  The middle or high byte is set automatically depend on left alignment 
 448:Generated_Source\PSoC5/adc.c **** *  configuration for DMA data transfer.
 449:Generated_Source\PSoC5/adc.c **** *  If DMA or if a custom API requires different byte to be read the last,
 450:Generated_Source\PSoC5/adc.c **** *  this API should be used to set the last byte of the ADC result that is read. 
 451:Generated_Source\PSoC5/adc.c **** *  If a multibyte read is performed either by DMA or the ARM processor, the
 452:Generated_Source\PSoC5/adc.c **** *  coherency can be set to any byte in the last word read.
 453:Generated_Source\PSoC5/adc.c **** *
 454:Generated_Source\PSoC5/adc.c **** * Parameters:
 455:Generated_Source\PSoC5/adc.c **** *  coherency:  Two bit value to set the coherency bit.
 456:Generated_Source\PSoC5/adc.c **** *           00-Coherency checking off
 457:Generated_Source\PSoC5/adc.c **** *           01-low byte is key byte
 458:Generated_Source\PSoC5/adc.c **** *           02-middle byte is the key byte
 459:Generated_Source\PSoC5/adc.c **** *           03-high byte is the key byte
 460:Generated_Source\PSoC5/adc.c **** *
 461:Generated_Source\PSoC5/adc.c **** * Return:
 462:Generated_Source\PSoC5/adc.c **** *  None
 463:Generated_Source\PSoC5/adc.c **** *
 464:Generated_Source\PSoC5/adc.c **** *******************************************************************************/
 465:Generated_Source\PSoC5/adc.c **** void adc_SetCoherency(uint8 coherency) 
 466:Generated_Source\PSoC5/adc.c **** {
 467:Generated_Source\PSoC5/adc.c ****     uint8 tmpReg;
 468:Generated_Source\PSoC5/adc.c **** 
 469:Generated_Source\PSoC5/adc.c ****     tmpReg = adc_DEC_COHER_REG & (uint8)~adc_DEC_SAMP_KEY_MASK;
 470:Generated_Source\PSoC5/adc.c ****     tmpReg |= coherency & adc_DEC_SAMP_KEY_MASK;
 471:Generated_Source\PSoC5/adc.c ****     adc_DEC_COHER_REG = tmpReg;
 472:Generated_Source\PSoC5/adc.c **** }
 473:Generated_Source\PSoC5/adc.c **** 
 474:Generated_Source\PSoC5/adc.c **** 
 475:Generated_Source\PSoC5/adc.c **** /*******************************************************************************
 476:Generated_Source\PSoC5/adc.c **** * Function Name: adc_SetGCOR
 477:Generated_Source\PSoC5/adc.c **** ********************************************************************************
 478:Generated_Source\PSoC5/adc.c **** *
 479:Generated_Source\PSoC5/adc.c **** * Summary:
 480:Generated_Source\PSoC5/adc.c **** *  Calculates a new GCOR value and writes it into the GCOR register. 
 481:Generated_Source\PSoC5/adc.c **** *  The GCOR value is a 16-bit value that represents a gain of 0 to 2. 
 482:Generated_Source\PSoC5/adc.c **** *  The ADC result is multiplied by this value before it is placed in the ADC 
 483:Generated_Source\PSoC5/adc.c **** *  output registers. The numerical format for the GCOR value is:
 484:Generated_Source\PSoC5/adc.c **** *  0x0000 -> 0.000
 485:Generated_Source\PSoC5/adc.c **** *  0x8000 -> 1.000
 486:Generated_Source\PSoC5/adc.c **** *  0xFFFF -> 1.99997
 487:Generated_Source\PSoC5/adc.c **** *  When executing the function, the old GCOR value is multiplied by
ARM GAS  C:\Users\hp\AppData\Local\Temp\ccOWzvx9.s 			page 10


 488:Generated_Source\PSoC5/adc.c **** *  gainAdjust and reloaded into the GCOR register.
 489:Generated_Source\PSoC5/adc.c **** *
 490:Generated_Source\PSoC5/adc.c **** * Parameters:
 491:Generated_Source\PSoC5/adc.c **** *  gainAdjust:  floating point value to set GCOR registers.
 492:Generated_Source\PSoC5/adc.c **** *
 493:Generated_Source\PSoC5/adc.c **** * Return:
 494:Generated_Source\PSoC5/adc.c **** *  uint8: 0 - if GCOR value is within the expected range.
 495:Generated_Source\PSoC5/adc.c **** *         1 - the correction value is outside GCOR value range of
 496:Generated_Source\PSoC5/adc.c **** *             0.00 to 1.9999.
 497:Generated_Source\PSoC5/adc.c **** *
 498:Generated_Source\PSoC5/adc.c **** * Side Effects:  The GVAL register is set to the amount of valid bits in the
 499:Generated_Source\PSoC5/adc.c **** *                GCOR  register minus one. If GVAL is 15 (0x0F), all 16 bits
 500:Generated_Source\PSoC5/adc.c **** *                of the GCOR registers will be valid. If for example GVAL is
 501:Generated_Source\PSoC5/adc.c **** *                11 (0x0B) only 12 bits will be valid. The least 4 bits will
 502:Generated_Source\PSoC5/adc.c **** *                be lost when the GCOR value is shifted 4 places to the right.
 503:Generated_Source\PSoC5/adc.c **** *
 504:Generated_Source\PSoC5/adc.c **** ******************************************************************************/
 505:Generated_Source\PSoC5/adc.c **** uint8 adc_SetGCOR(float32 gainAdjust) 
 506:Generated_Source\PSoC5/adc.c **** {
 507:Generated_Source\PSoC5/adc.c ****     uint16 tmpReg;
 508:Generated_Source\PSoC5/adc.c ****     uint8 status;
 509:Generated_Source\PSoC5/adc.c ****     float32 tmpValue;
 510:Generated_Source\PSoC5/adc.c **** 
 511:Generated_Source\PSoC5/adc.c ****     tmpReg = adc_gcor[adc_Config - 1u].gcor;
 512:Generated_Source\PSoC5/adc.c ****     tmpValue = ((float32)tmpReg / (float32)adc_IDEAL_GAIN_CONST);
 513:Generated_Source\PSoC5/adc.c ****     tmpValue = tmpValue * gainAdjust;
 514:Generated_Source\PSoC5/adc.c **** 
 515:Generated_Source\PSoC5/adc.c ****     if (tmpValue > 1.9999)
 516:Generated_Source\PSoC5/adc.c ****     {
 517:Generated_Source\PSoC5/adc.c ****         status = 1u;
 518:Generated_Source\PSoC5/adc.c ****     }
 519:Generated_Source\PSoC5/adc.c ****     else
 520:Generated_Source\PSoC5/adc.c ****     {
 521:Generated_Source\PSoC5/adc.c ****         tmpValue *= (float32)adc_IDEAL_GAIN_CONST;
 522:Generated_Source\PSoC5/adc.c **** 		tmpReg = (uint16)tmpValue;
 523:Generated_Source\PSoC5/adc.c ****         CY_SET_REG16(adc_DEC_GCOR_16B_PTR, tmpReg);
 524:Generated_Source\PSoC5/adc.c ****         /* Update gain array to be used by SelectConfiguration() API */
 525:Generated_Source\PSoC5/adc.c ****        adc_gcor[adc_Config - 1u].gcor = tmpReg;
 526:Generated_Source\PSoC5/adc.c **** 
 527:Generated_Source\PSoC5/adc.c ****         status = 0u;
 528:Generated_Source\PSoC5/adc.c **** 
 529:Generated_Source\PSoC5/adc.c ****     }
 530:Generated_Source\PSoC5/adc.c ****     return(status);
 531:Generated_Source\PSoC5/adc.c **** }
 532:Generated_Source\PSoC5/adc.c **** 
 533:Generated_Source\PSoC5/adc.c **** 
 534:Generated_Source\PSoC5/adc.c **** /******************************************************************************
 535:Generated_Source\PSoC5/adc.c **** * Function Name: adc_ReadGCOR
 536:Generated_Source\PSoC5/adc.c **** *******************************************************************************
 537:Generated_Source\PSoC5/adc.c **** *
 538:Generated_Source\PSoC5/adc.c **** * Summary:
 539:Generated_Source\PSoC5/adc.c **** *  This API returns the current GCOR register value, normalized based on the
 540:Generated_Source\PSoC5/adc.c **** *  GVAL register settings.
 541:Generated_Source\PSoC5/adc.c **** *  For example, if the GCOR value is 0x0812 and the GVAL register is set to 
 542:Generated_Source\PSoC5/adc.c **** *  11 (0x0B) then the returned value will be shifted by for bits to the left.
 543:Generated_Source\PSoC5/adc.c **** *  (Actual GCOR value = 0x0812, returned value = 0x8120)
 544:Generated_Source\PSoC5/adc.c **** *
ARM GAS  C:\Users\hp\AppData\Local\Temp\ccOWzvx9.s 			page 11


 545:Generated_Source\PSoC5/adc.c **** * Parameters:
 546:Generated_Source\PSoC5/adc.c **** *  None
 547:Generated_Source\PSoC5/adc.c **** *
 548:Generated_Source\PSoC5/adc.c **** * Return:
 549:Generated_Source\PSoC5/adc.c **** *  uint16:  Normalized GCOR value.
 550:Generated_Source\PSoC5/adc.c **** *
 551:Generated_Source\PSoC5/adc.c **** *******************************************************************************/
 552:Generated_Source\PSoC5/adc.c **** uint16 adc_ReadGCOR(void) 
 553:Generated_Source\PSoC5/adc.c **** {
 554:Generated_Source\PSoC5/adc.c ****     uint8 gValue;
 555:Generated_Source\PSoC5/adc.c ****     uint16 gcorValue;
 556:Generated_Source\PSoC5/adc.c **** 
 557:Generated_Source\PSoC5/adc.c ****     gValue = adc_DEC_GVAL_REG;
 558:Generated_Source\PSoC5/adc.c ****     gcorValue = CY_GET_REG16(adc_DEC_GCOR_16B_PTR);
 559:Generated_Source\PSoC5/adc.c **** 
 560:Generated_Source\PSoC5/adc.c ****     if (gValue < adc_MAX_GVAL)
 561:Generated_Source\PSoC5/adc.c ****     {
 562:Generated_Source\PSoC5/adc.c ****         gcorValue <<= adc_MAX_GVAL - gValue;
 563:Generated_Source\PSoC5/adc.c ****     }
 564:Generated_Source\PSoC5/adc.c **** 
 565:Generated_Source\PSoC5/adc.c ****     return gcorValue;
 566:Generated_Source\PSoC5/adc.c **** }
 567:Generated_Source\PSoC5/adc.c **** 
 568:Generated_Source\PSoC5/adc.c **** 
 569:Generated_Source\PSoC5/adc.c **** /*******************************************************************************
 570:Generated_Source\PSoC5/adc.c **** * Function Name: adc_StartConvert
 571:Generated_Source\PSoC5/adc.c **** ********************************************************************************
 572:Generated_Source\PSoC5/adc.c **** *
 573:Generated_Source\PSoC5/adc.c **** * Summary:
 574:Generated_Source\PSoC5/adc.c **** *  Forces the ADC to initiate a conversion. If in the "Single Sample"
 575:Generated_Source\PSoC5/adc.c **** *  mode, one conversion will be performed then the ADC will halt. If in
 576:Generated_Source\PSoC5/adc.c **** *  one of the other three conversion modes, the ADC will run
 577:Generated_Source\PSoC5/adc.c **** *  continuously until the ADC_Stop() or ADC_StopConvert() is called.
 578:Generated_Source\PSoC5/adc.c **** *
 579:Generated_Source\PSoC5/adc.c **** * Parameters:
 580:Generated_Source\PSoC5/adc.c **** *  None
 581:Generated_Source\PSoC5/adc.c **** *
 582:Generated_Source\PSoC5/adc.c **** * Return:
 583:Generated_Source\PSoC5/adc.c **** *  None
 584:Generated_Source\PSoC5/adc.c **** *
 585:Generated_Source\PSoC5/adc.c **** *******************************************************************************/
 586:Generated_Source\PSoC5/adc.c **** void adc_StartConvert(void) 
 587:Generated_Source\PSoC5/adc.c **** {
 588:Generated_Source\PSoC5/adc.c ****     /* Start the conversion */
 589:Generated_Source\PSoC5/adc.c ****     adc_DEC_CR_REG |= adc_DEC_START_CONV;
 590:Generated_Source\PSoC5/adc.c **** }
 591:Generated_Source\PSoC5/adc.c **** 
 592:Generated_Source\PSoC5/adc.c **** 
 593:Generated_Source\PSoC5/adc.c **** /*******************************************************************************
 594:Generated_Source\PSoC5/adc.c **** * Function Name: adc_StopConvert
 595:Generated_Source\PSoC5/adc.c **** ********************************************************************************
 596:Generated_Source\PSoC5/adc.c **** *
 597:Generated_Source\PSoC5/adc.c **** * Summary:
 598:Generated_Source\PSoC5/adc.c **** *  Forces the ADC to stop all conversions. If the ADC is in the middle of a
 599:Generated_Source\PSoC5/adc.c **** *  conversion, the ADC will be reset and not provide a result for that partial
 600:Generated_Source\PSoC5/adc.c **** *  conversion.
 601:Generated_Source\PSoC5/adc.c **** *
ARM GAS  C:\Users\hp\AppData\Local\Temp\ccOWzvx9.s 			page 12


 602:Generated_Source\PSoC5/adc.c **** * Parameters:
 603:Generated_Source\PSoC5/adc.c **** *  None
 604:Generated_Source\PSoC5/adc.c **** *
 605:Generated_Source\PSoC5/adc.c **** * Return:
 606:Generated_Source\PSoC5/adc.c **** *  None
 607:Generated_Source\PSoC5/adc.c **** *
 608:Generated_Source\PSoC5/adc.c **** *******************************************************************************/
 609:Generated_Source\PSoC5/adc.c **** void adc_StopConvert(void) 
 610:Generated_Source\PSoC5/adc.c **** {
 611:Generated_Source\PSoC5/adc.c ****     /* Stop all conversions */
 612:Generated_Source\PSoC5/adc.c ****     adc_DEC_CR_REG &= (uint8)~adc_DEC_START_CONV;
 613:Generated_Source\PSoC5/adc.c **** }
 614:Generated_Source\PSoC5/adc.c **** 
 615:Generated_Source\PSoC5/adc.c **** 
 616:Generated_Source\PSoC5/adc.c **** /*******************************************************************************
 617:Generated_Source\PSoC5/adc.c **** * Function Name: adc_IsEndConversion
 618:Generated_Source\PSoC5/adc.c **** ********************************************************************************
 619:Generated_Source\PSoC5/adc.c **** *
 620:Generated_Source\PSoC5/adc.c **** * Summary:
 621:Generated_Source\PSoC5/adc.c **** *  Checks the status that the most recently started conversion has completed.
 622:Generated_Source\PSoC5/adc.c **** *  The status is cleared by any of ADC_GetResult8(), ADC_GetResult16() or 
 623:Generated_Source\PSoC5/adc.c **** *  ADC_GetResult32() API.
 624:Generated_Source\PSoC5/adc.c **** *  This function provides the programmer with two options. In one mode this 
 625:Generated_Source\PSoC5/adc.c **** *  function immediately returns with the conversion status. In the other mode,
 626:Generated_Source\PSoC5/adc.c **** *  the function does not return (blocking) until the conversion has completed.
 627:Generated_Source\PSoC5/adc.c **** *
 628:Generated_Source\PSoC5/adc.c **** * Parameters:
 629:Generated_Source\PSoC5/adc.c **** *  retMode: Check conversion return mode. See the following table for options.
 630:Generated_Source\PSoC5/adc.c **** *   adc_RETURN_STATUS -   Immediately returns conversion result
 631:Generated_Source\PSoC5/adc.c **** *                                      status.
 632:Generated_Source\PSoC5/adc.c **** *   adc_WAIT_FOR_RESULT - Does not return until ADC conversion
 633:Generated_Source\PSoC5/adc.c **** *                                      is complete.
 634:Generated_Source\PSoC5/adc.c **** *
 635:Generated_Source\PSoC5/adc.c **** * Return:
 636:Generated_Source\PSoC5/adc.c **** *  If a nonzero value is returned, the last conversion has completed.
 637:Generated_Source\PSoC5/adc.c **** *  If the returned value is zero, the ADC is still calculating the last result.
 638:Generated_Source\PSoC5/adc.c **** *
 639:Generated_Source\PSoC5/adc.c **** * Global variables:
 640:Generated_Source\PSoC5/adc.c **** *  adc_convDone:  Used to check whether conversion is complete
 641:Generated_Source\PSoC5/adc.c **** *  or not for single sample mode with resolution is above 16
 642:Generated_Source\PSoC5/adc.c **** *
 643:Generated_Source\PSoC5/adc.c **** *******************************************************************************/
 644:Generated_Source\PSoC5/adc.c **** uint8 adc_IsEndConversion(uint8 retMode) 
 645:Generated_Source\PSoC5/adc.c **** {
 646:Generated_Source\PSoC5/adc.c ****     uint8 status;
 647:Generated_Source\PSoC5/adc.c **** 
 648:Generated_Source\PSoC5/adc.c ****     do
 649:Generated_Source\PSoC5/adc.c ****     {
 650:Generated_Source\PSoC5/adc.c ****         /* Check for stop convert if conversion mode is Single Sample with
 651:Generated_Source\PSoC5/adc.c ****         *   resolution above 16 bit
 652:Generated_Source\PSoC5/adc.c ****         */
 653:Generated_Source\PSoC5/adc.c ****         if(adc_stopConversion != 0u)
 654:Generated_Source\PSoC5/adc.c ****         {
 655:Generated_Source\PSoC5/adc.c ****             status = adc_convDone;
 656:Generated_Source\PSoC5/adc.c ****         }
 657:Generated_Source\PSoC5/adc.c ****         else
 658:Generated_Source\PSoC5/adc.c ****         {
ARM GAS  C:\Users\hp\AppData\Local\Temp\ccOWzvx9.s 			page 13


 659:Generated_Source\PSoC5/adc.c ****             status = adc_DEC_SR_REG & adc_DEC_CONV_DONE;
 660:Generated_Source\PSoC5/adc.c ****         }
 661:Generated_Source\PSoC5/adc.c ****     }while((status != adc_DEC_CONV_DONE) && (retMode == adc_WAIT_FOR_RESULT));
 662:Generated_Source\PSoC5/adc.c **** 
 663:Generated_Source\PSoC5/adc.c ****     return(status);
 664:Generated_Source\PSoC5/adc.c **** }
 665:Generated_Source\PSoC5/adc.c **** 
 666:Generated_Source\PSoC5/adc.c **** 
 667:Generated_Source\PSoC5/adc.c **** /*******************************************************************************
 668:Generated_Source\PSoC5/adc.c **** * Function Name: adc_GetResult8
 669:Generated_Source\PSoC5/adc.c **** ********************************************************************************
 670:Generated_Source\PSoC5/adc.c **** *
 671:Generated_Source\PSoC5/adc.c **** * Summary:
 672:Generated_Source\PSoC5/adc.c **** *  This function returns the result of an 8-bit conversion. If the
 673:Generated_Source\PSoC5/adc.c **** *  resolution is set greater than 8-bits, the LSB of the result will be
 674:Generated_Source\PSoC5/adc.c **** *  returned. When the ADC is configured for 8-bit single ended mode,
 675:Generated_Source\PSoC5/adc.c **** *  the ADC_GetResult16() function should be used instead. This
 676:Generated_Source\PSoC5/adc.c **** *  function returns only signed 8-bit values. The maximum positive
 677:Generated_Source\PSoC5/adc.c **** *  signed 8-bit value is 127, but in singled ended 8-bit mode, the
 678:Generated_Source\PSoC5/adc.c **** *  maximum positive value is 255.
 679:Generated_Source\PSoC5/adc.c **** *
 680:Generated_Source\PSoC5/adc.c **** * Parameters:
 681:Generated_Source\PSoC5/adc.c **** *  None
 682:Generated_Source\PSoC5/adc.c **** *
 683:Generated_Source\PSoC5/adc.c **** * Return:
 684:Generated_Source\PSoC5/adc.c **** *  int8: The LSB of the last ADC conversion.
 685:Generated_Source\PSoC5/adc.c **** *
 686:Generated_Source\PSoC5/adc.c **** * Global variables:
 687:Generated_Source\PSoC5/adc.c **** *  adc_convDone:  Cleared in single sample mode with resolution
 688:Generated_Source\PSoC5/adc.c **** *                              above 16 bits
 689:Generated_Source\PSoC5/adc.c **** *
 690:Generated_Source\PSoC5/adc.c **** *******************************************************************************/
 691:Generated_Source\PSoC5/adc.c **** int8 adc_GetResult8( void ) 
 692:Generated_Source\PSoC5/adc.c **** {
 693:Generated_Source\PSoC5/adc.c ****     int8 result;
 694:Generated_Source\PSoC5/adc.c ****     uint8 coherency;
 695:Generated_Source\PSoC5/adc.c **** 
 696:Generated_Source\PSoC5/adc.c ****     /* Read active coherency configuration */
 697:Generated_Source\PSoC5/adc.c ****     coherency = adc_DEC_COHER_REG & adc_DEC_SAMP_KEY_MASK;
 698:Generated_Source\PSoC5/adc.c **** 
 699:Generated_Source\PSoC5/adc.c ****     result = (int8)adc_DEC_SAMP_REG;
 700:Generated_Source\PSoC5/adc.c **** 
 701:Generated_Source\PSoC5/adc.c ****     if(coherency == adc_DEC_SAMP_KEY_MID)
 702:Generated_Source\PSoC5/adc.c ****     {   /* Dummy read of the middle byte to unlock the coherency */
 703:Generated_Source\PSoC5/adc.c ****         (void)adc_DEC_SAMPM_REG;
 704:Generated_Source\PSoC5/adc.c ****     }
 705:Generated_Source\PSoC5/adc.c ****     else  if(coherency == adc_DEC_SAMP_KEY_HIGH)
 706:Generated_Source\PSoC5/adc.c ****     {   /* Dummy read of the MSB byte to unlock the coherency */
 707:Generated_Source\PSoC5/adc.c ****         (void)adc_DEC_SAMPH_REG;
 708:Generated_Source\PSoC5/adc.c ****     }
 709:Generated_Source\PSoC5/adc.c ****     else /*No action required for other coherency */
 710:Generated_Source\PSoC5/adc.c ****     {
 711:Generated_Source\PSoC5/adc.c ****     }
 712:Generated_Source\PSoC5/adc.c ****     /* Clear conversion complete status in Single Sample mode with resolution above 16 bit */
 713:Generated_Source\PSoC5/adc.c ****     if(adc_stopConversion != 0u)
 714:Generated_Source\PSoC5/adc.c ****     {
 715:Generated_Source\PSoC5/adc.c ****         adc_convDone = 0u;
ARM GAS  C:\Users\hp\AppData\Local\Temp\ccOWzvx9.s 			page 14


 716:Generated_Source\PSoC5/adc.c ****     }
 717:Generated_Source\PSoC5/adc.c ****     return (result);
 718:Generated_Source\PSoC5/adc.c **** }
 719:Generated_Source\PSoC5/adc.c **** 
 720:Generated_Source\PSoC5/adc.c **** 
 721:Generated_Source\PSoC5/adc.c **** /*******************************************************************************
 722:Generated_Source\PSoC5/adc.c **** * Function Name: adc_GetResult16
 723:Generated_Source\PSoC5/adc.c **** ********************************************************************************
 724:Generated_Source\PSoC5/adc.c **** *
 725:Generated_Source\PSoC5/adc.c **** * Summary:
 726:Generated_Source\PSoC5/adc.c **** *  Returns a 16-bit result for a conversion with a result that has a
 727:Generated_Source\PSoC5/adc.c **** *  resolution of 8 to 16 bits. If the resolution is set greater than 16-bits,
 728:Generated_Source\PSoC5/adc.c **** *  it will return the 16 least significant bits of the result. When the ADC
 729:Generated_Source\PSoC5/adc.c **** *  is configured for 16-bit single ended mode, the ADC_GetResult32()
 730:Generated_Source\PSoC5/adc.c **** *  function should be used instead. This function returns only signed
 731:Generated_Source\PSoC5/adc.c **** *  16-bit result, which allows a maximum positive value of 32767, not 65535.
 732:Generated_Source\PSoC5/adc.c **** *  This function supports different coherency settings.
 733:Generated_Source\PSoC5/adc.c **** *
 734:Generated_Source\PSoC5/adc.c **** * Parameters:
 735:Generated_Source\PSoC5/adc.c **** *   void
 736:Generated_Source\PSoC5/adc.c **** *
 737:Generated_Source\PSoC5/adc.c **** * Return:
 738:Generated_Source\PSoC5/adc.c **** *  int16:  ADC result.
 739:Generated_Source\PSoC5/adc.c **** *
 740:Generated_Source\PSoC5/adc.c **** * Global variables:
 741:Generated_Source\PSoC5/adc.c **** *  adc_convDone:  Cleared in single sample mode with resolution
 742:Generated_Source\PSoC5/adc.c **** *                              above 16 bits
 743:Generated_Source\PSoC5/adc.c **** *
 744:Generated_Source\PSoC5/adc.c **** *******************************************************************************/
 745:Generated_Source\PSoC5/adc.c **** int16 adc_GetResult16(void) 
 746:Generated_Source\PSoC5/adc.c **** {
 747:Generated_Source\PSoC5/adc.c ****     uint16 result;
 748:Generated_Source\PSoC5/adc.c ****     uint8 coherency;
 749:Generated_Source\PSoC5/adc.c **** 
 750:Generated_Source\PSoC5/adc.c ****     /* Read active coherency configuration */
 751:Generated_Source\PSoC5/adc.c ****     coherency = adc_DEC_COHER_REG & adc_DEC_SAMP_KEY_MASK;
 752:Generated_Source\PSoC5/adc.c **** 
 753:Generated_Source\PSoC5/adc.c ****     if(coherency <= adc_DEC_SAMP_KEY_LOW)
 754:Generated_Source\PSoC5/adc.c ****     {   /*  Use default method to read result registers i.e. LSB byte read at the end*/
 755:Generated_Source\PSoC5/adc.c ****         #if (CY_PSOC3)
 756:Generated_Source\PSoC5/adc.c ****             result = adc_DEC_SAMPM_REG;
 757:Generated_Source\PSoC5/adc.c ****             result = (result << 8u) | adc_DEC_SAMP_REG;
 758:Generated_Source\PSoC5/adc.c ****         #else
 759:Generated_Source\PSoC5/adc.c ****             result = (CY_GET_REG16(adc_DEC_SAMP_16B_PTR));
 760:Generated_Source\PSoC5/adc.c ****         #endif /* CY_PSOC3 */
 761:Generated_Source\PSoC5/adc.c ****     }
 762:Generated_Source\PSoC5/adc.c ****     else /* MID or HIGH */
 763:Generated_Source\PSoC5/adc.c ****     {   /* Read middle byte at the end */
 764:Generated_Source\PSoC5/adc.c ****         #if (CY_PSOC3)
 765:Generated_Source\PSoC5/adc.c ****             result = (CY_GET_REG16(adc_DEC_SAMP_16B_PTR));
 766:Generated_Source\PSoC5/adc.c ****         #else
 767:Generated_Source\PSoC5/adc.c ****             result = adc_DEC_SAMP_REG;
 768:Generated_Source\PSoC5/adc.c ****             result |=  (uint16)((uint16)adc_DEC_SAMPM_REG << 8u);
 769:Generated_Source\PSoC5/adc.c ****         #endif /* CY_PSOC3 */
 770:Generated_Source\PSoC5/adc.c ****         if(coherency == adc_DEC_SAMP_KEY_HIGH)
 771:Generated_Source\PSoC5/adc.c ****         {   /* Dummy read of the MSB byte to unlock the coherency */
 772:Generated_Source\PSoC5/adc.c ****             (void)adc_DEC_SAMPH_REG;
ARM GAS  C:\Users\hp\AppData\Local\Temp\ccOWzvx9.s 			page 15


 773:Generated_Source\PSoC5/adc.c ****         }
 774:Generated_Source\PSoC5/adc.c ****     }
 775:Generated_Source\PSoC5/adc.c ****     /* Clear conversion complete status in Single Sample mode with resolution above 16 bit */
 776:Generated_Source\PSoC5/adc.c ****     if(adc_stopConversion != 0u)
 777:Generated_Source\PSoC5/adc.c ****     {
 778:Generated_Source\PSoC5/adc.c ****         adc_convDone = 0u;
 779:Generated_Source\PSoC5/adc.c ****     }
 780:Generated_Source\PSoC5/adc.c **** 
 781:Generated_Source\PSoC5/adc.c ****     return ((int16)result);
 782:Generated_Source\PSoC5/adc.c **** }
 783:Generated_Source\PSoC5/adc.c **** 
 784:Generated_Source\PSoC5/adc.c **** 
 785:Generated_Source\PSoC5/adc.c **** /*******************************************************************************
 786:Generated_Source\PSoC5/adc.c **** * Function Name: adc_GetResult32
 787:Generated_Source\PSoC5/adc.c **** ********************************************************************************
 788:Generated_Source\PSoC5/adc.c **** *
 789:Generated_Source\PSoC5/adc.c **** * Summary:
 790:Generated_Source\PSoC5/adc.c **** *  Returns a 32-bit result for a conversion with a result that has a
 791:Generated_Source\PSoC5/adc.c **** *  resolution of 8 to 20 bits.
 792:Generated_Source\PSoC5/adc.c **** *  This function supports different coherency settings.
 793:Generated_Source\PSoC5/adc.c **** *
 794:Generated_Source\PSoC5/adc.c **** * Parameters:
 795:Generated_Source\PSoC5/adc.c **** *  None
 796:Generated_Source\PSoC5/adc.c **** *
 797:Generated_Source\PSoC5/adc.c **** * Return:
 798:Generated_Source\PSoC5/adc.c **** *  int32: Result of the last ADC conversion.
 799:Generated_Source\PSoC5/adc.c **** *
 800:Generated_Source\PSoC5/adc.c **** * Global variables:
 801:Generated_Source\PSoC5/adc.c **** *  adc_convDone:  Cleared in single sample mode with resolution
 802:Generated_Source\PSoC5/adc.c **** *                              above 16 bits
 803:Generated_Source\PSoC5/adc.c **** *
 804:Generated_Source\PSoC5/adc.c **** *******************************************************************************/
 805:Generated_Source\PSoC5/adc.c **** int32 adc_GetResult32(void) 
 806:Generated_Source\PSoC5/adc.c **** {
 807:Generated_Source\PSoC5/adc.c ****     uint32 result;
 808:Generated_Source\PSoC5/adc.c ****     uint8 coherency;
 809:Generated_Source\PSoC5/adc.c ****     #if (CY_PSOC3)
 810:Generated_Source\PSoC5/adc.c **** 	    uint16 tmp;
 811:Generated_Source\PSoC5/adc.c ****     #endif /* CY_PSOC3 */
 812:Generated_Source\PSoC5/adc.c **** 
 813:Generated_Source\PSoC5/adc.c ****     /* Read active coherency configuration */
 814:Generated_Source\PSoC5/adc.c ****     coherency = adc_DEC_COHER_REG & adc_DEC_SAMP_KEY_MASK;
 815:Generated_Source\PSoC5/adc.c **** 
 816:Generated_Source\PSoC5/adc.c ****     if(coherency <= adc_DEC_SAMP_KEY_LOW)
 817:Generated_Source\PSoC5/adc.c ****     {   /*  Use default method to read result registers i.e. LSB byte read at the end*/
 818:Generated_Source\PSoC5/adc.c ****         #if (CY_PSOC3)
 819:Generated_Source\PSoC5/adc.c ****             result = adc_DEC_SAMPH_REG;
 820:Generated_Source\PSoC5/adc.c ****             if((result & 0x80u) != 0u)
 821:Generated_Source\PSoC5/adc.c ****             {   /* Sign extend */
 822:Generated_Source\PSoC5/adc.c ****                 result |= 0xFF00u;
 823:Generated_Source\PSoC5/adc.c ****             }
 824:Generated_Source\PSoC5/adc.c ****             result = (result << 8u) | adc_DEC_SAMPM_REG;
 825:Generated_Source\PSoC5/adc.c ****             result = (result << 8u) | adc_DEC_SAMP_REG;
 826:Generated_Source\PSoC5/adc.c ****         #else
 827:Generated_Source\PSoC5/adc.c ****             result = CY_GET_REG16(adc_DEC_SAMPH_16B_PTR);
 828:Generated_Source\PSoC5/adc.c ****             result = (result << 16u) | (CY_GET_REG16(adc_DEC_SAMP_16B_PTR));
 829:Generated_Source\PSoC5/adc.c ****         #endif /* CY_PSOC3 */
ARM GAS  C:\Users\hp\AppData\Local\Temp\ccOWzvx9.s 			page 16


 830:Generated_Source\PSoC5/adc.c ****     }
 831:Generated_Source\PSoC5/adc.c ****     else if(coherency == adc_DEC_SAMP_KEY_MID)
 832:Generated_Source\PSoC5/adc.c ****     {   /* Read middle byte at the end */
 833:Generated_Source\PSoC5/adc.c ****         #if (CY_PSOC3)
 834:Generated_Source\PSoC5/adc.c ****             result = adc_DEC_SAMPH_REG;
 835:Generated_Source\PSoC5/adc.c ****             if((result & 0x80u) != 0u)
 836:Generated_Source\PSoC5/adc.c ****             {   /* Sign extend */
 837:Generated_Source\PSoC5/adc.c ****                 result |= 0xFF00u;
 838:Generated_Source\PSoC5/adc.c ****             }
 839:Generated_Source\PSoC5/adc.c ****             result = (result << 16u) | (CY_GET_REG16(adc_DEC_SAMP_16B_PTR));
 840:Generated_Source\PSoC5/adc.c ****         #else
 841:Generated_Source\PSoC5/adc.c ****             result = CY_GET_REG16(adc_DEC_SAMPH_16B_PTR);
 842:Generated_Source\PSoC5/adc.c ****             result = (result << 16u) | adc_DEC_SAMP_REG;
 843:Generated_Source\PSoC5/adc.c ****             result |=  (uint32)((uint32)adc_DEC_SAMPM_REG << 8u);
 844:Generated_Source\PSoC5/adc.c ****         #endif /* CY_PSOC3 */
 845:Generated_Source\PSoC5/adc.c ****     }
 846:Generated_Source\PSoC5/adc.c ****     else /*adc_DEC_SAMP_KEY_HIGH */
 847:Generated_Source\PSoC5/adc.c ****     {
 848:Generated_Source\PSoC5/adc.c ****         /* Read MSB byte at the end */
 849:Generated_Source\PSoC5/adc.c ****         #if (CY_PSOC3)
 850:Generated_Source\PSoC5/adc.c ****             result = CY_GET_REG16(adc_DEC_SAMP_16B_PTR);
 851:Generated_Source\PSoC5/adc.c **** 			tmp = adc_DEC_SAMPH_REG;
 852:Generated_Source\PSoC5/adc.c ****             if((tmp & 0x80u) != 0u)
 853:Generated_Source\PSoC5/adc.c ****             {   /* Sign extend */
 854:Generated_Source\PSoC5/adc.c ****                 tmp |= 0xFF00u;
 855:Generated_Source\PSoC5/adc.c ****             }
 856:Generated_Source\PSoC5/adc.c ****             result |= (uint32)tmp << 16u;
 857:Generated_Source\PSoC5/adc.c ****         #else
 858:Generated_Source\PSoC5/adc.c ****             result = CY_GET_REG16(adc_DEC_SAMP_16B_PTR);
 859:Generated_Source\PSoC5/adc.c ****             result |= (uint32)((uint32)CY_GET_REG16(adc_DEC_SAMPH_16B_PTR) << 16u);
 860:Generated_Source\PSoC5/adc.c ****         #endif /* CY_PSOC3 */
 861:Generated_Source\PSoC5/adc.c ****     }
 862:Generated_Source\PSoC5/adc.c ****     /* Clear conversion complete status in Single Sample mode with resolution above 16 bit */
 863:Generated_Source\PSoC5/adc.c ****     if(adc_stopConversion != 0u)
 864:Generated_Source\PSoC5/adc.c ****     {
 865:Generated_Source\PSoC5/adc.c ****         adc_convDone = 0u;
 866:Generated_Source\PSoC5/adc.c ****     }
 867:Generated_Source\PSoC5/adc.c **** 
 868:Generated_Source\PSoC5/adc.c ****     return ((int32)result);
 869:Generated_Source\PSoC5/adc.c **** }
 870:Generated_Source\PSoC5/adc.c **** 
 871:Generated_Source\PSoC5/adc.c **** 
 872:Generated_Source\PSoC5/adc.c **** /*******************************************************************************
 873:Generated_Source\PSoC5/adc.c **** * Function Name: adc_SetOffset
 874:Generated_Source\PSoC5/adc.c **** ********************************************************************************
 875:Generated_Source\PSoC5/adc.c **** *
 876:Generated_Source\PSoC5/adc.c **** * Summary:
 877:Generated_Source\PSoC5/adc.c **** *  Sets the ADC offset which is used by the functions ADC_CountsTo_uVolts, 
 878:Generated_Source\PSoC5/adc.c **** *  ADC_CountsTo_mVolts, and ADC_CountsTo_Volts to subtract the offset from the 
 879:Generated_Source\PSoC5/adc.c **** *  given reading before calculating the voltage conversion.
 880:Generated_Source\PSoC5/adc.c **** *
 881:Generated_Source\PSoC5/adc.c **** * Parameters:
 882:Generated_Source\PSoC5/adc.c **** *  int32:  This value is a measured value when the inputs are shorted or 
 883:Generated_Source\PSoC5/adc.c **** *          connected to the same input voltage.
 884:Generated_Source\PSoC5/adc.c **** *
 885:Generated_Source\PSoC5/adc.c **** * Return:
 886:Generated_Source\PSoC5/adc.c **** *  None
ARM GAS  C:\Users\hp\AppData\Local\Temp\ccOWzvx9.s 			page 17


 887:Generated_Source\PSoC5/adc.c **** *
 888:Generated_Source\PSoC5/adc.c **** * Global variables:
 889:Generated_Source\PSoC5/adc.c **** *  adc_Offset:  Modified to set the user provided offset. This
 890:Generated_Source\PSoC5/adc.c **** *  variable is used for offset calibration purpose.
 891:Generated_Source\PSoC5/adc.c **** *
 892:Generated_Source\PSoC5/adc.c **** * Side Effects:
 893:Generated_Source\PSoC5/adc.c **** *  Affects the adc_CountsTo_Volts,
 894:Generated_Source\PSoC5/adc.c **** *  adc_CountsTo_mVolts, adc_CountsTo_uVolts functions
 895:Generated_Source\PSoC5/adc.c **** *  by subtracting the given offset.
 896:Generated_Source\PSoC5/adc.c **** *
 897:Generated_Source\PSoC5/adc.c **** *******************************************************************************/
 898:Generated_Source\PSoC5/adc.c **** void adc_SetOffset(int32 offset) 
 899:Generated_Source\PSoC5/adc.c **** {
 900:Generated_Source\PSoC5/adc.c **** 
 901:Generated_Source\PSoC5/adc.c ****     adc_Offset = offset;
 902:Generated_Source\PSoC5/adc.c **** }
 903:Generated_Source\PSoC5/adc.c **** 
 904:Generated_Source\PSoC5/adc.c **** 
 905:Generated_Source\PSoC5/adc.c **** /*******************************************************************************
 906:Generated_Source\PSoC5/adc.c **** * Function Name: adc_SetGain
 907:Generated_Source\PSoC5/adc.c **** ********************************************************************************
 908:Generated_Source\PSoC5/adc.c **** *
 909:Generated_Source\PSoC5/adc.c **** * Summary:
 910:Generated_Source\PSoC5/adc.c **** *  Sets the ADC gain in counts per volt for the voltage conversion
 911:Generated_Source\PSoC5/adc.c **** *  functions below. This value is set by default by the reference and
 912:Generated_Source\PSoC5/adc.c **** *  input range settings. It should only be used to further calibrate the
 913:Generated_Source\PSoC5/adc.c **** *  ADC with a known input or if an external reference is used. This
 914:Generated_Source\PSoC5/adc.c **** *  function may also be used to calibrate an entire signal chain, not
 915:Generated_Source\PSoC5/adc.c **** *  just the ADC.
 916:Generated_Source\PSoC5/adc.c **** *
 917:Generated_Source\PSoC5/adc.c **** * Parameters:
 918:Generated_Source\PSoC5/adc.c **** *  int32: ADC gain in counts per volt.
 919:Generated_Source\PSoC5/adc.c **** *
 920:Generated_Source\PSoC5/adc.c **** * Return:
 921:Generated_Source\PSoC5/adc.c **** *  None
 922:Generated_Source\PSoC5/adc.c **** *
 923:Generated_Source\PSoC5/adc.c **** * Global variables:
 924:Generated_Source\PSoC5/adc.c **** *  adc_CountsPerVolt:  modified to set the ADC gain in counts
 925:Generated_Source\PSoC5/adc.c **** *   per volt.
 926:Generated_Source\PSoC5/adc.c **** *
 927:Generated_Source\PSoC5/adc.c **** * Side Effects:
 928:Generated_Source\PSoC5/adc.c **** *  Affects the adc_CountsTo_Volts,
 929:Generated_Source\PSoC5/adc.c **** *  adc_CountsTo_mVolts, adc_CountsTo_uVolts functions
 930:Generated_Source\PSoC5/adc.c **** *  supplying the correct conversion between ADC counts and voltage.
 931:Generated_Source\PSoC5/adc.c **** *
 932:Generated_Source\PSoC5/adc.c **** *******************************************************************************/
 933:Generated_Source\PSoC5/adc.c **** void adc_SetGain(int32 adcGain) 
 934:Generated_Source\PSoC5/adc.c **** {
 935:Generated_Source\PSoC5/adc.c ****     adc_CountsPerVolt = adcGain;
 936:Generated_Source\PSoC5/adc.c **** }
 937:Generated_Source\PSoC5/adc.c **** 
 938:Generated_Source\PSoC5/adc.c **** 
 939:Generated_Source\PSoC5/adc.c **** /*******************************************************************************
 940:Generated_Source\PSoC5/adc.c **** * Function Name: adc_CountsTo_mVolts
 941:Generated_Source\PSoC5/adc.c **** ********************************************************************************
 942:Generated_Source\PSoC5/adc.c **** *
 943:Generated_Source\PSoC5/adc.c **** * Summary:
ARM GAS  C:\Users\hp\AppData\Local\Temp\ccOWzvx9.s 			page 18


 944:Generated_Source\PSoC5/adc.c **** *  Converts the ADC counts output to mVolts as a 16-bit integer. For
 945:Generated_Source\PSoC5/adc.c **** *  example, if the ADC measured 0.534 volts, the return value would
 946:Generated_Source\PSoC5/adc.c **** *  be 534 mVolts.
 947:Generated_Source\PSoC5/adc.c **** *
 948:Generated_Source\PSoC5/adc.c **** * Parameters:
 949:Generated_Source\PSoC5/adc.c **** *  int32: adcCounts Result from the ADC conversion.
 950:Generated_Source\PSoC5/adc.c **** *
 951:Generated_Source\PSoC5/adc.c **** * Return:
 952:Generated_Source\PSoC5/adc.c **** *  int16:  Result in mVolts
 953:Generated_Source\PSoC5/adc.c **** *
 954:Generated_Source\PSoC5/adc.c **** * Global variables:
 955:Generated_Source\PSoC5/adc.c **** *  adc_CountsPerVolt:  used to convert ADC counts to mVolts.
 956:Generated_Source\PSoC5/adc.c **** *  adc_Offset:  Used as the offset while converting ADC counts
 957:Generated_Source\PSoC5/adc.c **** *   to mVolts.
 958:Generated_Source\PSoC5/adc.c **** *
 959:Generated_Source\PSoC5/adc.c **** *******************************************************************************/
 960:Generated_Source\PSoC5/adc.c **** int16 adc_CountsTo_mVolts(int32 adcCounts) 
 961:Generated_Source\PSoC5/adc.c **** {
 962:Generated_Source\PSoC5/adc.c **** 
 963:Generated_Source\PSoC5/adc.c ****     int16 mVolts;
 964:Generated_Source\PSoC5/adc.c **** 
 965:Generated_Source\PSoC5/adc.c ****     /* Convert adcCounts to the right align if left option selected */
 966:Generated_Source\PSoC5/adc.c ****     #if(adc_CFG1_DEC_DIV != 0)
 967:Generated_Source\PSoC5/adc.c ****         if(adc_Config == adc_CFG1)
 968:Generated_Source\PSoC5/adc.c ****         {
 969:Generated_Source\PSoC5/adc.c ****             adcCounts /= adc_CFG1_DEC_DIV;
 970:Generated_Source\PSoC5/adc.c ****         }
 971:Generated_Source\PSoC5/adc.c ****     #endif /* adc_CFG1_DEC_DIV */
 972:Generated_Source\PSoC5/adc.c ****     #if((adc_CFG2_DEC_DIV != 0) && (adc_DEFAULT_NUM_CONFIGS > 1))
 973:Generated_Source\PSoC5/adc.c ****         if(adc_Config == adc_CFG2)
 974:Generated_Source\PSoC5/adc.c ****         {
 975:Generated_Source\PSoC5/adc.c ****             adcCounts /= adc_CFG2_DEC_DIV;
 976:Generated_Source\PSoC5/adc.c ****         }
 977:Generated_Source\PSoC5/adc.c ****     #endif /* adc_CFG2_DEC_DIV */
 978:Generated_Source\PSoC5/adc.c ****     #if((adc_CFG3_DEC_DIV != 0) && (adc_DEFAULT_NUM_CONFIGS > 2))
 979:Generated_Source\PSoC5/adc.c ****         if(adc_Config == adc_CFG3)
 980:Generated_Source\PSoC5/adc.c ****         {
 981:Generated_Source\PSoC5/adc.c ****             adcCounts /= adc_CFG3_DEC_DIV;
 982:Generated_Source\PSoC5/adc.c ****         }
 983:Generated_Source\PSoC5/adc.c ****     #endif /* adc_CFG2_DEC_DIV */
 984:Generated_Source\PSoC5/adc.c ****     #if((adc_CFG4_DEC_DIV != 0) && (adc_DEFAULT_NUM_CONFIGS > 3))
 985:Generated_Source\PSoC5/adc.c ****         if(adc_Config == adc_CFG4)
 986:Generated_Source\PSoC5/adc.c ****         {
 987:Generated_Source\PSoC5/adc.c ****             adcCounts /= adc_CFG4_DEC_DIV;
 988:Generated_Source\PSoC5/adc.c ****         }
 989:Generated_Source\PSoC5/adc.c ****     #endif /* adc_CFG2_DEC_DIV */
 990:Generated_Source\PSoC5/adc.c **** 
 991:Generated_Source\PSoC5/adc.c ****     /* Subtract ADC offset */
 992:Generated_Source\PSoC5/adc.c ****     adcCounts -= adc_Offset;
 993:Generated_Source\PSoC5/adc.c **** 
 994:Generated_Source\PSoC5/adc.c ****     mVolts = (int16)(( adcCounts * adc_1MV_COUNTS ) / adc_CountsPerVolt) ;
 995:Generated_Source\PSoC5/adc.c **** 
 996:Generated_Source\PSoC5/adc.c ****     return(mVolts);
 997:Generated_Source\PSoC5/adc.c **** }
 998:Generated_Source\PSoC5/adc.c **** 
 999:Generated_Source\PSoC5/adc.c **** 
1000:Generated_Source\PSoC5/adc.c **** /*******************************************************************************
ARM GAS  C:\Users\hp\AppData\Local\Temp\ccOWzvx9.s 			page 19


1001:Generated_Source\PSoC5/adc.c **** * Function Name: adc_CountsTo_Volts
1002:Generated_Source\PSoC5/adc.c **** ********************************************************************************
1003:Generated_Source\PSoC5/adc.c **** *
1004:Generated_Source\PSoC5/adc.c **** * Summary:
1005:Generated_Source\PSoC5/adc.c **** *  Converts the ADC output to Volts as a floating point number. For
1006:Generated_Source\PSoC5/adc.c **** *  example, if the ADC measure a voltage of 1.2345 Volts, the
1007:Generated_Source\PSoC5/adc.c **** *  returned result would be +1.2345 Volts.
1008:Generated_Source\PSoC5/adc.c **** *
1009:Generated_Source\PSoC5/adc.c **** * Parameters:
1010:Generated_Source\PSoC5/adc.c **** *  int32 adcCounts:  Result from the ADC conversion.
1011:Generated_Source\PSoC5/adc.c **** *
1012:Generated_Source\PSoC5/adc.c **** * Return:
1013:Generated_Source\PSoC5/adc.c **** *  float32: Result in Volts
1014:Generated_Source\PSoC5/adc.c **** *
1015:Generated_Source\PSoC5/adc.c **** * Global variables:
1016:Generated_Source\PSoC5/adc.c **** *  adc_CountsPerVolt:  used to convert to Volts.
1017:Generated_Source\PSoC5/adc.c **** *  adc_Offset:  Used as the offset while converting ADC counts
1018:Generated_Source\PSoC5/adc.c **** *   to Volts.
1019:Generated_Source\PSoC5/adc.c **** *
1020:Generated_Source\PSoC5/adc.c **** *******************************************************************************/
1021:Generated_Source\PSoC5/adc.c **** float32 adc_CountsTo_Volts(int32 adcCounts) 
1022:Generated_Source\PSoC5/adc.c **** {
1023:Generated_Source\PSoC5/adc.c **** 
1024:Generated_Source\PSoC5/adc.c ****     float32 Volts;
1025:Generated_Source\PSoC5/adc.c **** 
1026:Generated_Source\PSoC5/adc.c ****     /* Convert adcCounts to the right align if left option selected */
1027:Generated_Source\PSoC5/adc.c ****     #if(adc_CFG1_DEC_DIV != 0)
1028:Generated_Source\PSoC5/adc.c ****         if(adc_Config == adc_CFG1)
1029:Generated_Source\PSoC5/adc.c ****         {
1030:Generated_Source\PSoC5/adc.c ****             adcCounts /= adc_CFG1_DEC_DIV;
1031:Generated_Source\PSoC5/adc.c ****         }
1032:Generated_Source\PSoC5/adc.c ****     #endif /* adc_CFG1_DEC_DIV */
1033:Generated_Source\PSoC5/adc.c ****     #if((adc_CFG2_DEC_DIV != 0) && (adc_DEFAULT_NUM_CONFIGS > 1))
1034:Generated_Source\PSoC5/adc.c ****         if(adc_Config == adc_CFG2)
1035:Generated_Source\PSoC5/adc.c ****         {
1036:Generated_Source\PSoC5/adc.c ****             adcCounts /= adc_CFG2_DEC_DIV;
1037:Generated_Source\PSoC5/adc.c ****         }
1038:Generated_Source\PSoC5/adc.c ****     #endif /* adc_CFG2_DEC_DIV */
1039:Generated_Source\PSoC5/adc.c ****     #if((adc_CFG3_DEC_DIV != 0) && (adc_DEFAULT_NUM_CONFIGS > 2))
1040:Generated_Source\PSoC5/adc.c ****         if(adc_Config == adc_CFG3)
1041:Generated_Source\PSoC5/adc.c ****         {
1042:Generated_Source\PSoC5/adc.c ****             adcCounts /= adc_CFG3_DEC_DIV;
1043:Generated_Source\PSoC5/adc.c ****         }
1044:Generated_Source\PSoC5/adc.c ****     #endif /* adc_CFG2_DEC_DIV */
1045:Generated_Source\PSoC5/adc.c ****     #if((adc_CFG4_DEC_DIV != 0) && (adc_DEFAULT_NUM_CONFIGS > 3))
1046:Generated_Source\PSoC5/adc.c ****         if(adc_Config == adc_CFG4)
1047:Generated_Source\PSoC5/adc.c ****         {
1048:Generated_Source\PSoC5/adc.c ****             adcCounts /= adc_CFG4_DEC_DIV;
1049:Generated_Source\PSoC5/adc.c ****         }
1050:Generated_Source\PSoC5/adc.c ****     #endif /* adc_CFG2_DEC_DIV */
1051:Generated_Source\PSoC5/adc.c **** 
1052:Generated_Source\PSoC5/adc.c ****     /* Subtract ADC offset */
1053:Generated_Source\PSoC5/adc.c ****     adcCounts -= adc_Offset;
1054:Generated_Source\PSoC5/adc.c **** 
1055:Generated_Source\PSoC5/adc.c ****     Volts = (float32)adcCounts / (float32)adc_CountsPerVolt;
1056:Generated_Source\PSoC5/adc.c **** 
1057:Generated_Source\PSoC5/adc.c ****     return( Volts );
ARM GAS  C:\Users\hp\AppData\Local\Temp\ccOWzvx9.s 			page 20


1058:Generated_Source\PSoC5/adc.c **** }
1059:Generated_Source\PSoC5/adc.c **** 
1060:Generated_Source\PSoC5/adc.c **** 
1061:Generated_Source\PSoC5/adc.c **** /*******************************************************************************
1062:Generated_Source\PSoC5/adc.c **** * Function Name: adc_CountsTo_uVolts
1063:Generated_Source\PSoC5/adc.c **** ********************************************************************************
1064:Generated_Source\PSoC5/adc.c **** *
1065:Generated_Source\PSoC5/adc.c **** * Summary:
1066:Generated_Source\PSoC5/adc.c **** *  Converts the ADC output to uVolts as a 32-bit integer. For example,
1067:Generated_Source\PSoC5/adc.c **** *  if the ADC measured -0.02345 Volts, the return value would be -23450 uVolts.
1068:Generated_Source\PSoC5/adc.c **** *
1069:Generated_Source\PSoC5/adc.c **** * Parameters:
1070:Generated_Source\PSoC5/adc.c **** *  int32 adcCounts: Result from the ADC conversion.
1071:Generated_Source\PSoC5/adc.c **** *
1072:Generated_Source\PSoC5/adc.c **** * Return:
1073:Generated_Source\PSoC5/adc.c **** *  int32:  Result in uVolts
1074:Generated_Source\PSoC5/adc.c **** *
1075:Generated_Source\PSoC5/adc.c **** * Global variables:
1076:Generated_Source\PSoC5/adc.c **** *  adc_CountsPerVolt:  used to convert ADC counts to mVolts.
1077:Generated_Source\PSoC5/adc.c **** *  adc_Offset:  Used as the offset while converting ADC counts
1078:Generated_Source\PSoC5/adc.c **** *   to mVolts.
1079:Generated_Source\PSoC5/adc.c **** *
1080:Generated_Source\PSoC5/adc.c **** * Theory:
1081:Generated_Source\PSoC5/adc.c **** *  Care must be taken to not exceed the maximum value for a 31 bit signed
1082:Generated_Source\PSoC5/adc.c **** *  number in the conversion to uVolts and at the same time not lose resolution.
1083:Generated_Source\PSoC5/adc.c **** *
1084:Generated_Source\PSoC5/adc.c **** *  uVolts = ((A * adcCounts) / ((int32)adc_CountsPerVolt / B));
1085:Generated_Source\PSoC5/adc.c **** *
1086:Generated_Source\PSoC5/adc.c **** *******************************************************************************/
1087:Generated_Source\PSoC5/adc.c **** int32 adc_CountsTo_uVolts(int32 adcCounts) 
1088:Generated_Source\PSoC5/adc.c **** {
1089:Generated_Source\PSoC5/adc.c **** 
1090:Generated_Source\PSoC5/adc.c ****     int32 uVolts;
1091:Generated_Source\PSoC5/adc.c ****     int32 coefA;
1092:Generated_Source\PSoC5/adc.c ****     int32 coefB;
1093:Generated_Source\PSoC5/adc.c ****     uint8 resolution;
1094:Generated_Source\PSoC5/adc.c **** 
1095:Generated_Source\PSoC5/adc.c ****     /* Set the resolution based on the configuration */
1096:Generated_Source\PSoC5/adc.c ****     /* Convert adcCounts to the right align if left option selected */
1097:Generated_Source\PSoC5/adc.c ****     if (adc_Config == adc_CFG1)
1098:Generated_Source\PSoC5/adc.c ****     {
1099:Generated_Source\PSoC5/adc.c ****         resolution = adc_CFG1_RESOLUTION;
1100:Generated_Source\PSoC5/adc.c ****         #if(adc_CFG1_DEC_DIV != 0)
1101:Generated_Source\PSoC5/adc.c ****             adcCounts /= adc_CFG1_DEC_DIV;
1102:Generated_Source\PSoC5/adc.c ****         #endif /* adc_CFG1_DEC_DIV */
1103:Generated_Source\PSoC5/adc.c ****     }
1104:Generated_Source\PSoC5/adc.c ****     else if (adc_Config == adc_CFG2)
1105:Generated_Source\PSoC5/adc.c ****     {
1106:Generated_Source\PSoC5/adc.c ****         resolution = adc_CFG2_RESOLUTION;
1107:Generated_Source\PSoC5/adc.c ****         #if(adc_CFG2_DEC_DIV != 0)
1108:Generated_Source\PSoC5/adc.c ****             adcCounts /= adc_CFG2_DEC_DIV;
1109:Generated_Source\PSoC5/adc.c ****         #endif /* adc_CFG2_DEC_DIV */
1110:Generated_Source\PSoC5/adc.c ****     }
1111:Generated_Source\PSoC5/adc.c ****     else if (adc_Config == adc_CFG3)
1112:Generated_Source\PSoC5/adc.c ****     {
1113:Generated_Source\PSoC5/adc.c ****         resolution = adc_CFG3_RESOLUTION;
1114:Generated_Source\PSoC5/adc.c ****         #if(adc_CFG3_DEC_DIV != 0)
ARM GAS  C:\Users\hp\AppData\Local\Temp\ccOWzvx9.s 			page 21


1115:Generated_Source\PSoC5/adc.c ****             adcCounts /= adc_CFG3_DEC_DIV;
1116:Generated_Source\PSoC5/adc.c ****         #endif /* adc_CFG3_DEC_DIV */
1117:Generated_Source\PSoC5/adc.c ****     }
1118:Generated_Source\PSoC5/adc.c ****     else
1119:Generated_Source\PSoC5/adc.c ****     {
1120:Generated_Source\PSoC5/adc.c ****         resolution = adc_CFG4_RESOLUTION;
1121:Generated_Source\PSoC5/adc.c ****         #if(adc_CFG4_DEC_DIV != 0)
1122:Generated_Source\PSoC5/adc.c ****             adcCounts /= adc_CFG4_DEC_DIV;
1123:Generated_Source\PSoC5/adc.c ****         #endif /* adc_CFG4_DEC_DIV */
1124:Generated_Source\PSoC5/adc.c ****     }
1125:Generated_Source\PSoC5/adc.c **** 
1126:Generated_Source\PSoC5/adc.c ****     switch (resolution)
1127:Generated_Source\PSoC5/adc.c ****     {
1128:Generated_Source\PSoC5/adc.c ****         #if( (adc_CFG1_RESOLUTION == adc__BITS_12) || \
1129:Generated_Source\PSoC5/adc.c ****              (adc_CFG2_RESOLUTION == adc__BITS_12) || \
1130:Generated_Source\PSoC5/adc.c ****              (adc_CFG3_RESOLUTION == adc__BITS_12) || \
1131:Generated_Source\PSoC5/adc.c ****              (adc_CFG4_RESOLUTION == adc__BITS_12) )
1132:Generated_Source\PSoC5/adc.c ****             case (uint8)adc__BITS_12:
1133:Generated_Source\PSoC5/adc.c ****                 coefA = adc_1UV_COUNTS / adc_DIVISOR_2;
1134:Generated_Source\PSoC5/adc.c ****                 coefB = adc_DIVISOR_2;
1135:Generated_Source\PSoC5/adc.c ****                 break;
1136:Generated_Source\PSoC5/adc.c ****         #endif /* adc__BITS_12 */    
1137:Generated_Source\PSoC5/adc.c ****         #if( (adc_CFG1_RESOLUTION == adc__BITS_13) || \
1138:Generated_Source\PSoC5/adc.c ****              (adc_CFG2_RESOLUTION == adc__BITS_13) || \
1139:Generated_Source\PSoC5/adc.c ****              (adc_CFG3_RESOLUTION == adc__BITS_13) || \
1140:Generated_Source\PSoC5/adc.c ****              (adc_CFG4_RESOLUTION == adc__BITS_13) )
1141:Generated_Source\PSoC5/adc.c ****             case (uint8)adc__BITS_13:
1142:Generated_Source\PSoC5/adc.c ****                 coefA = adc_1UV_COUNTS / adc_DIVISOR_4;
1143:Generated_Source\PSoC5/adc.c ****                 coefB = adc_DIVISOR_4;
1144:Generated_Source\PSoC5/adc.c ****                 break;
1145:Generated_Source\PSoC5/adc.c ****         #endif /* adc__BITS_13 */    
1146:Generated_Source\PSoC5/adc.c ****         #if( (adc_CFG1_RESOLUTION == adc__BITS_14) || \
1147:Generated_Source\PSoC5/adc.c ****              (adc_CFG2_RESOLUTION == adc__BITS_14) || \
1148:Generated_Source\PSoC5/adc.c ****              (adc_CFG3_RESOLUTION == adc__BITS_14) || \
1149:Generated_Source\PSoC5/adc.c ****              (adc_CFG4_RESOLUTION == adc__BITS_14) )
1150:Generated_Source\PSoC5/adc.c ****             case (uint8)adc__BITS_14:
1151:Generated_Source\PSoC5/adc.c ****                 coefA = adc_1UV_COUNTS / adc_DIVISOR_8;
1152:Generated_Source\PSoC5/adc.c ****                 coefB = adc_DIVISOR_8;
1153:Generated_Source\PSoC5/adc.c ****                 break;
1154:Generated_Source\PSoC5/adc.c ****         #endif /* adc__BITS_14 */    
1155:Generated_Source\PSoC5/adc.c ****         #if( (adc_CFG1_RESOLUTION == adc__BITS_15) || \
1156:Generated_Source\PSoC5/adc.c ****              (adc_CFG2_RESOLUTION == adc__BITS_15) || \
1157:Generated_Source\PSoC5/adc.c ****              (adc_CFG3_RESOLUTION == adc__BITS_15) || \
1158:Generated_Source\PSoC5/adc.c ****              (adc_CFG4_RESOLUTION == adc__BITS_15) )
1159:Generated_Source\PSoC5/adc.c ****             case (uint8)adc__BITS_15:
1160:Generated_Source\PSoC5/adc.c ****                 coefA = adc_1UV_COUNTS / adc_DIVISOR_16;
1161:Generated_Source\PSoC5/adc.c ****                 coefB = adc_DIVISOR_16;
1162:Generated_Source\PSoC5/adc.c ****                 break;
1163:Generated_Source\PSoC5/adc.c ****         #endif /* adc__BITS_15 */    
1164:Generated_Source\PSoC5/adc.c ****         #if( (adc_CFG1_RESOLUTION == adc__BITS_16) || \
1165:Generated_Source\PSoC5/adc.c ****              (adc_CFG2_RESOLUTION == adc__BITS_16) || \
1166:Generated_Source\PSoC5/adc.c ****              (adc_CFG3_RESOLUTION == adc__BITS_16) || \
1167:Generated_Source\PSoC5/adc.c ****              (adc_CFG4_RESOLUTION == adc__BITS_16) )
1168:Generated_Source\PSoC5/adc.c ****             case (uint8)adc__BITS_16:
1169:Generated_Source\PSoC5/adc.c ****                 coefA = adc_1UV_COUNTS / adc_DIVISOR_32;
1170:Generated_Source\PSoC5/adc.c ****                 coefB = adc_DIVISOR_32;
1171:Generated_Source\PSoC5/adc.c ****                 break;
ARM GAS  C:\Users\hp\AppData\Local\Temp\ccOWzvx9.s 			page 22


1172:Generated_Source\PSoC5/adc.c ****         #endif /* adc__BITS_16 */    
1173:Generated_Source\PSoC5/adc.c ****         #if( (adc_CFG1_RESOLUTION == adc__BITS_17) || \
1174:Generated_Source\PSoC5/adc.c ****              (adc_CFG2_RESOLUTION == adc__BITS_17) || \
1175:Generated_Source\PSoC5/adc.c ****              (adc_CFG3_RESOLUTION == adc__BITS_17) || \
1176:Generated_Source\PSoC5/adc.c ****              (adc_CFG4_RESOLUTION == adc__BITS_17) )
1177:Generated_Source\PSoC5/adc.c ****             case (uint8)adc__BITS_17:
1178:Generated_Source\PSoC5/adc.c ****                 coefA = adc_1UV_COUNTS / adc_DIVISOR_64;
1179:Generated_Source\PSoC5/adc.c ****                 coefB = adc_DIVISOR_64;
1180:Generated_Source\PSoC5/adc.c ****                 break;
1181:Generated_Source\PSoC5/adc.c ****         #endif /* adc__BITS_17 */    
1182:Generated_Source\PSoC5/adc.c ****         #if( (adc_CFG1_RESOLUTION == adc__BITS_18) || \
1183:Generated_Source\PSoC5/adc.c ****              (adc_CFG2_RESOLUTION == adc__BITS_18) || \
1184:Generated_Source\PSoC5/adc.c ****              (adc_CFG3_RESOLUTION == adc__BITS_18) || \
1185:Generated_Source\PSoC5/adc.c ****              (adc_CFG4_RESOLUTION == adc__BITS_18) )
1186:Generated_Source\PSoC5/adc.c ****             case (uint8)adc__BITS_18:
1187:Generated_Source\PSoC5/adc.c ****                 coefA = adc_1UV_COUNTS / adc_DIVISOR_125;
1188:Generated_Source\PSoC5/adc.c ****                 coefB = adc_DIVISOR_125;
1189:Generated_Source\PSoC5/adc.c ****                 break;
1190:Generated_Source\PSoC5/adc.c ****         #endif /* adc__BITS_18 */    
1191:Generated_Source\PSoC5/adc.c ****         #if( (adc_CFG1_RESOLUTION == adc__BITS_19) || \
1192:Generated_Source\PSoC5/adc.c ****              (adc_CFG2_RESOLUTION == adc__BITS_19) || \
1193:Generated_Source\PSoC5/adc.c ****              (adc_CFG3_RESOLUTION == adc__BITS_19) || \
1194:Generated_Source\PSoC5/adc.c ****              (adc_CFG4_RESOLUTION == adc__BITS_19) )
1195:Generated_Source\PSoC5/adc.c ****             case (uint8)adc__BITS_19:
1196:Generated_Source\PSoC5/adc.c ****                 coefA = adc_1UV_COUNTS / adc_DIVISOR_250;
1197:Generated_Source\PSoC5/adc.c ****                 coefB = adc_DIVISOR_250;
1198:Generated_Source\PSoC5/adc.c ****                 break;
1199:Generated_Source\PSoC5/adc.c ****         #endif /* adc__BITS_19 */    
1200:Generated_Source\PSoC5/adc.c ****         #if( (adc_CFG1_RESOLUTION == adc__BITS_20) || \
1201:Generated_Source\PSoC5/adc.c ****              (adc_CFG2_RESOLUTION == adc__BITS_20) || \
1202:Generated_Source\PSoC5/adc.c ****              (adc_CFG3_RESOLUTION == adc__BITS_20) || \
1203:Generated_Source\PSoC5/adc.c ****              (adc_CFG4_RESOLUTION == adc__BITS_20) )
1204:Generated_Source\PSoC5/adc.c ****             case (uint8)adc__BITS_20:
1205:Generated_Source\PSoC5/adc.c ****                 coefA = adc_1UV_COUNTS / adc_DIVISOR_500;
1206:Generated_Source\PSoC5/adc.c ****                 coefB = adc_DIVISOR_500;
1207:Generated_Source\PSoC5/adc.c ****                 break;
1208:Generated_Source\PSoC5/adc.c ****         #endif /* adc__BITS_20 */    
1209:Generated_Source\PSoC5/adc.c ****         default:    /* resolution < 12 */
1210:Generated_Source\PSoC5/adc.c ****             /* 11 bits ADC + 2^20(1048576) = 31 bits */
1211:Generated_Source\PSoC5/adc.c ****             coefA = adc_1UV_COUNTS;
1212:Generated_Source\PSoC5/adc.c ****             coefB = adc_DIVISOR_1;
1213:Generated_Source\PSoC5/adc.c ****             break;
1214:Generated_Source\PSoC5/adc.c ****     }
1215:Generated_Source\PSoC5/adc.c ****     coefB = adc_CountsPerVolt / coefB;
1216:Generated_Source\PSoC5/adc.c ****     uVolts = ((coefA * adcCounts) / coefB) - ((coefA * adc_Offset) / coefB);
1217:Generated_Source\PSoC5/adc.c **** 
1218:Generated_Source\PSoC5/adc.c ****     return( uVolts );
1219:Generated_Source\PSoC5/adc.c **** }
1220:Generated_Source\PSoC5/adc.c **** 
1221:Generated_Source\PSoC5/adc.c **** 
1222:Generated_Source\PSoC5/adc.c **** /*******************************************************************************
1223:Generated_Source\PSoC5/adc.c **** * Function Name: adc_InitConfig(uint8 config)
1224:Generated_Source\PSoC5/adc.c **** ********************************************************************************
1225:Generated_Source\PSoC5/adc.c **** *
1226:Generated_Source\PSoC5/adc.c **** * Summary:
1227:Generated_Source\PSoC5/adc.c **** *  Initializes all registers based on customizer settings
1228:Generated_Source\PSoC5/adc.c **** *
ARM GAS  C:\Users\hp\AppData\Local\Temp\ccOWzvx9.s 			page 23


1229:Generated_Source\PSoC5/adc.c **** * Parameters:
1230:Generated_Source\PSoC5/adc.c **** *   void
1231:Generated_Source\PSoC5/adc.c **** *
1232:Generated_Source\PSoC5/adc.c **** * Return:
1233:Generated_Source\PSoC5/adc.c **** *  None
1234:Generated_Source\PSoC5/adc.c **** *
1235:Generated_Source\PSoC5/adc.c **** * Global variables:
1236:Generated_Source\PSoC5/adc.c **** *  adc_CountsPerVolt:  Used to set the default counts per volt.
1237:Generated_Source\PSoC5/adc.c **** *
1238:Generated_Source\PSoC5/adc.c **** * Side Effects: Rewrites the coherency set by adc_SetCoherency()
1239:Generated_Source\PSoC5/adc.c **** *   API to the default value.
1240:Generated_Source\PSoC5/adc.c **** *
1241:Generated_Source\PSoC5/adc.c **** *******************************************************************************/
1242:Generated_Source\PSoC5/adc.c **** static void adc_InitConfig(uint8 config) 
1243:Generated_Source\PSoC5/adc.c **** {
1244:Generated_Source\PSoC5/adc.c ****     adc_stopConversion = 0u;
1245:Generated_Source\PSoC5/adc.c **** 
1246:Generated_Source\PSoC5/adc.c ****     if (config == 1u)
1247:Generated_Source\PSoC5/adc.c ****     {
1248:Generated_Source\PSoC5/adc.c ****         /* Default Config */
1249:Generated_Source\PSoC5/adc.c ****         adc_DEC_CR_REG      = adc_CFG1_DEC_CR;
1250:Generated_Source\PSoC5/adc.c ****         adc_DEC_SHIFT1_REG  = adc_CFG1_DEC_SHIFT1;
1251:Generated_Source\PSoC5/adc.c ****         adc_DEC_SHIFT2_REG  = adc_CFG1_DEC_SHIFT2;
1252:Generated_Source\PSoC5/adc.c ****         adc_DEC_DR2_REG     = adc_CFG1_DEC_DR2;
1253:Generated_Source\PSoC5/adc.c ****         adc_DEC_DR2H_REG    = adc_CFG1_DEC_DR2H;
1254:Generated_Source\PSoC5/adc.c ****         adc_DEC_DR1_REG     = adc_CFG1_DEC_DR1;
1255:Generated_Source\PSoC5/adc.c ****         adc_DEC_OCOR_REG    = adc_CFG1_DEC_OCOR;
1256:Generated_Source\PSoC5/adc.c ****         adc_DEC_OCORM_REG   = adc_CFG1_DEC_OCORM;
1257:Generated_Source\PSoC5/adc.c ****         adc_DEC_OCORH_REG   = adc_CFG1_DEC_OCORH;
1258:Generated_Source\PSoC5/adc.c ****         adc_DEC_COHER_REG   = adc_CFG1_DEC_COHER;
1259:Generated_Source\PSoC5/adc.c **** 
1260:Generated_Source\PSoC5/adc.c ****         adc_DSM_CR4_REG     = adc_CFG1_DSM_CR4;
1261:Generated_Source\PSoC5/adc.c ****         adc_DSM_CR5_REG     = adc_CFG1_DSM_CR5;
1262:Generated_Source\PSoC5/adc.c ****         adc_DSM_CR6_REG     = adc_CFG1_DSM_CR6;
1263:Generated_Source\PSoC5/adc.c ****         adc_DSM_CR7_REG     = adc_CFG1_DSM_CR7;
1264:Generated_Source\PSoC5/adc.c ****         adc_DSM_CR10_REG    = adc_CFG1_DSM_CR10;
1265:Generated_Source\PSoC5/adc.c ****         adc_DSM_CR11_REG    = adc_CFG1_DSM_CR11;
1266:Generated_Source\PSoC5/adc.c ****         adc_DSM_CR12_REG    = adc_CFG1_DSM_CR12;
1267:Generated_Source\PSoC5/adc.c ****         adc_DSM_CR14_REG    = adc_CFG1_DSM_CR14;
1268:Generated_Source\PSoC5/adc.c ****         adc_DSM_CR15_REG    = adc_CFG1_DSM_CR15;
1269:Generated_Source\PSoC5/adc.c ****         adc_DSM_CR16_REG    = adc_CFG1_DSM_CR16;
1270:Generated_Source\PSoC5/adc.c ****         adc_DSM_CR17_REG    = adc_CFG1_DSM_CR17;
1271:Generated_Source\PSoC5/adc.c ****         /* Set DSM_REF0_REG by disabling and enabling the PRESS circuit */
1272:Generated_Source\PSoC5/adc.c ****         adc_SetDSMRef0Reg(adc_CFG1_DSM_REF0);
1273:Generated_Source\PSoC5/adc.c ****         adc_DSM_REF2_REG    = adc_CFG1_DSM_REF2;
1274:Generated_Source\PSoC5/adc.c ****         adc_DSM_REF3_REG    = adc_CFG1_DSM_REF3;
1275:Generated_Source\PSoC5/adc.c **** 
1276:Generated_Source\PSoC5/adc.c ****         adc_DSM_BUF0_REG    = adc_CFG1_DSM_BUF0;
1277:Generated_Source\PSoC5/adc.c ****         adc_DSM_BUF1_REG    = adc_CFG1_DSM_BUF1;
1278:Generated_Source\PSoC5/adc.c ****         adc_DSM_BUF2_REG    = adc_CFG1_DSM_BUF2;
1279:Generated_Source\PSoC5/adc.c ****         adc_DSM_BUF3_REG    = adc_CFG1_DSM_BUF3;
1280:Generated_Source\PSoC5/adc.c **** 
1281:Generated_Source\PSoC5/adc.c ****         /* To select either Vssa or Vref to -ve input of DSM depending on
1282:Generated_Source\PSoC5/adc.c ****         *  the input  range selected.
1283:Generated_Source\PSoC5/adc.c ****         */
1284:Generated_Source\PSoC5/adc.c ****         #if(adc_DEFAULT_INPUT_MODE)
1285:Generated_Source\PSoC5/adc.c ****             #if (adc_CFG1_INPUT_RANGE == adc_IR_VSSA_TO_2VREF)
ARM GAS  C:\Users\hp\AppData\Local\Temp\ccOWzvx9.s 			page 24


1286:Generated_Source\PSoC5/adc.c ****                 adc_AMux_Select(1u);
1287:Generated_Source\PSoC5/adc.c ****             #else
1288:Generated_Source\PSoC5/adc.c ****                 adc_AMux_Select(0u);
1289:Generated_Source\PSoC5/adc.c ****             #endif /* adc_IR_VSSA_TO_2VREF) */
1290:Generated_Source\PSoC5/adc.c ****         #endif /* adc_DEFAULT_INPUT_MODE */
1291:Generated_Source\PSoC5/adc.c **** 
1292:Generated_Source\PSoC5/adc.c ****         /* Set the Conversion stop if resolution is above 16 bit and conversion
1293:Generated_Source\PSoC5/adc.c ****         *   mode is Single sample
1294:Generated_Source\PSoC5/adc.c ****         */
1295:Generated_Source\PSoC5/adc.c ****         #if(adc_CFG1_RESOLUTION > 16 && \
1296:Generated_Source\PSoC5/adc.c ****             adc_CFG1_CONV_MODE == adc_MODE_SINGLE_SAMPLE)
1297:Generated_Source\PSoC5/adc.c ****             adc_stopConversion = 1u;
1298:Generated_Source\PSoC5/adc.c ****         #endif /* Single sample with resolution above 16 bits. */
1299:Generated_Source\PSoC5/adc.c **** 
1300:Generated_Source\PSoC5/adc.c ****         adc_CountsPerVolt = (int32)adc_CFG1_COUNTS_PER_VOLT;
1301:Generated_Source\PSoC5/adc.c **** 
1302:Generated_Source\PSoC5/adc.c ****         adc_Ext_CP_Clk_SetDividerRegister(adc_CFG1_CP_CLK_DIVIDER, 1u);
1303:Generated_Source\PSoC5/adc.c **** 
1304:Generated_Source\PSoC5/adc.c ****         /* This is only valid if there is an internal clock */
1305:Generated_Source\PSoC5/adc.c ****         #if(adc_DEFAULT_INTERNAL_CLK)
1306:Generated_Source\PSoC5/adc.c ****             adc_theACLK_SetDividerRegister(adc_CFG1_ADC_CLK_DIVIDER, 1u);
1307:Generated_Source\PSoC5/adc.c ****         #endif /* adc_DEFAULT_INTERNAL_CLK */
1308:Generated_Source\PSoC5/adc.c **** 
1309:Generated_Source\PSoC5/adc.c ****         #if(adc_IRQ_REMOVE == 0u)
1310:Generated_Source\PSoC5/adc.c ****             /* Set interrupt vector */
1311:Generated_Source\PSoC5/adc.c ****             (void)CyIntSetVector(adc_INTC_NUMBER, &adc_ISR1);
1312:Generated_Source\PSoC5/adc.c ****         #endif   /* End adc_IRQ_REMOVE */
1313:Generated_Source\PSoC5/adc.c ****     }
1314:Generated_Source\PSoC5/adc.c **** 
1315:Generated_Source\PSoC5/adc.c ****     #if(adc_DEFAULT_NUM_CONFIGS > 1)
1316:Generated_Source\PSoC5/adc.c ****         if(config == 2u)
1317:Generated_Source\PSoC5/adc.c ****         {
1318:Generated_Source\PSoC5/adc.c ****             /* Second Config */
1319:Generated_Source\PSoC5/adc.c ****             adc_DEC_CR_REG      = adc_CFG2_DEC_CR;
1320:Generated_Source\PSoC5/adc.c ****             adc_DEC_SHIFT1_REG  = adc_CFG2_DEC_SHIFT1;
1321:Generated_Source\PSoC5/adc.c ****             adc_DEC_SHIFT2_REG  = adc_CFG2_DEC_SHIFT2;
1322:Generated_Source\PSoC5/adc.c ****             adc_DEC_DR2_REG     = adc_CFG2_DEC_DR2;
1323:Generated_Source\PSoC5/adc.c ****             adc_DEC_DR2H_REG    = adc_CFG2_DEC_DR2H;
1324:Generated_Source\PSoC5/adc.c ****             adc_DEC_DR1_REG     = adc_CFG2_DEC_DR1;
1325:Generated_Source\PSoC5/adc.c ****             adc_DEC_OCOR_REG    = adc_CFG2_DEC_OCOR;
1326:Generated_Source\PSoC5/adc.c ****             adc_DEC_OCORM_REG   = adc_CFG2_DEC_OCORM;
1327:Generated_Source\PSoC5/adc.c ****             adc_DEC_OCORH_REG   = adc_CFG2_DEC_OCORH;
1328:Generated_Source\PSoC5/adc.c ****             adc_DEC_COHER_REG   = adc_CFG2_DEC_COHER;
1329:Generated_Source\PSoC5/adc.c **** 
1330:Generated_Source\PSoC5/adc.c ****             adc_DSM_CR4_REG     = adc_CFG2_DSM_CR4;
1331:Generated_Source\PSoC5/adc.c ****             adc_DSM_CR5_REG     = adc_CFG2_DSM_CR5;
1332:Generated_Source\PSoC5/adc.c ****             adc_DSM_CR6_REG     = adc_CFG2_DSM_CR6;
1333:Generated_Source\PSoC5/adc.c ****             adc_DSM_CR7_REG     = adc_CFG2_DSM_CR7;
1334:Generated_Source\PSoC5/adc.c ****             adc_DSM_CR10_REG    = adc_CFG2_DSM_CR10;
1335:Generated_Source\PSoC5/adc.c ****             adc_DSM_CR11_REG    = adc_CFG2_DSM_CR11;
1336:Generated_Source\PSoC5/adc.c ****             adc_DSM_CR12_REG    = adc_CFG2_DSM_CR12;
1337:Generated_Source\PSoC5/adc.c ****             adc_DSM_CR14_REG    = adc_CFG2_DSM_CR14;
1338:Generated_Source\PSoC5/adc.c ****             adc_DSM_CR15_REG    = adc_CFG2_DSM_CR15;
1339:Generated_Source\PSoC5/adc.c ****             adc_DSM_CR16_REG    = adc_CFG2_DSM_CR16;
1340:Generated_Source\PSoC5/adc.c ****             adc_DSM_CR17_REG    = adc_CFG2_DSM_CR17;
1341:Generated_Source\PSoC5/adc.c ****             /* Set DSM_REF0_REG by disabling and enabling the PRESS cirucit */
1342:Generated_Source\PSoC5/adc.c ****             adc_SetDSMRef0Reg(adc_CFG2_DSM_REF0);
ARM GAS  C:\Users\hp\AppData\Local\Temp\ccOWzvx9.s 			page 25


1343:Generated_Source\PSoC5/adc.c ****             adc_DSM_REF2_REG    = adc_CFG2_DSM_REF2;
1344:Generated_Source\PSoC5/adc.c ****             adc_DSM_REF3_REG    = adc_CFG2_DSM_REF3;
1345:Generated_Source\PSoC5/adc.c **** 
1346:Generated_Source\PSoC5/adc.c ****             adc_DSM_BUF0_REG    = adc_CFG2_DSM_BUF0;
1347:Generated_Source\PSoC5/adc.c ****             adc_DSM_BUF1_REG    = adc_CFG2_DSM_BUF1;
1348:Generated_Source\PSoC5/adc.c ****             adc_DSM_BUF2_REG    = adc_CFG2_DSM_BUF2;
1349:Generated_Source\PSoC5/adc.c ****             adc_DSM_BUF3_REG    = adc_CFG2_DSM_BUF3;
1350:Generated_Source\PSoC5/adc.c **** 
1351:Generated_Source\PSoC5/adc.c ****             /* To select either Vssa or Vref to -ve input of DSM depending on
1352:Generated_Source\PSoC5/adc.c ****             *  the input range selected.
1353:Generated_Source\PSoC5/adc.c ****             */
1354:Generated_Source\PSoC5/adc.c **** 
1355:Generated_Source\PSoC5/adc.c ****             #if(adc_DEFAULT_INPUT_MODE)
1356:Generated_Source\PSoC5/adc.c ****                 #if (adc_CFG2_INPUT_RANGE == adc_IR_VSSA_TO_2VREF)
1357:Generated_Source\PSoC5/adc.c ****                     adc_AMux_Select(1u);
1358:Generated_Source\PSoC5/adc.c ****                 #else
1359:Generated_Source\PSoC5/adc.c ****                     adc_AMux_Select(0u);
1360:Generated_Source\PSoC5/adc.c ****                 #endif /* adc_IR_VSSA_TO_2VREF) */
1361:Generated_Source\PSoC5/adc.c ****             #endif /* adc_DEFAULT_INPUT_MODE */
1362:Generated_Source\PSoC5/adc.c **** 
1363:Generated_Source\PSoC5/adc.c ****             /* Set the Conversion stop if resolution is above 16 bit and
1364:Generated_Source\PSoC5/adc.c ****             *   conversion mode is Single sample
1365:Generated_Source\PSoC5/adc.c ****             */
1366:Generated_Source\PSoC5/adc.c ****             #if(adc_CFG2_RESOLUTION > 16 && \
1367:Generated_Source\PSoC5/adc.c ****                 adc_CFG2_CONV_MODE == adc_MODE_SINGLE_SAMPLE)
1368:Generated_Source\PSoC5/adc.c ****                 adc_stopConversion = 1u;
1369:Generated_Source\PSoC5/adc.c ****             #endif /* Single sample with resolution above 16 bits. */
1370:Generated_Source\PSoC5/adc.c **** 
1371:Generated_Source\PSoC5/adc.c ****             adc_CountsPerVolt = (int32)adc_CFG2_COUNTS_PER_VOLT;
1372:Generated_Source\PSoC5/adc.c **** 
1373:Generated_Source\PSoC5/adc.c ****             adc_Ext_CP_Clk_SetDividerRegister(adc_CFG2_CP_CLK_DIVIDER, 1u);
1374:Generated_Source\PSoC5/adc.c **** 
1375:Generated_Source\PSoC5/adc.c ****             /* This is only valid if there is an internal clock */
1376:Generated_Source\PSoC5/adc.c ****             #if(adc_DEFAULT_INTERNAL_CLK)
1377:Generated_Source\PSoC5/adc.c ****                 adc_theACLK_SetDividerRegister(adc_CFG2_ADC_CLK_DIVIDER, 1u);
1378:Generated_Source\PSoC5/adc.c ****             #endif /* adc_DEFAULT_INTERNAL_CLK */
1379:Generated_Source\PSoC5/adc.c **** 
1380:Generated_Source\PSoC5/adc.c ****             #if(adc_IRQ_REMOVE == 0u)
1381:Generated_Source\PSoC5/adc.c ****                 /* Set interrupt vector */
1382:Generated_Source\PSoC5/adc.c ****                 (void)CyIntSetVector(adc_INTC_NUMBER, &adc_ISR2);
1383:Generated_Source\PSoC5/adc.c ****             #endif   /* End adc_IRQ_REMOVE */
1384:Generated_Source\PSoC5/adc.c ****         }
1385:Generated_Source\PSoC5/adc.c ****     #endif /* adc_DEFAULT_NUM_CONFIGS > 1 */
1386:Generated_Source\PSoC5/adc.c **** 
1387:Generated_Source\PSoC5/adc.c ****     #if(adc_DEFAULT_NUM_CONFIGS > 2)
1388:Generated_Source\PSoC5/adc.c ****         if(config == 3u)
1389:Generated_Source\PSoC5/adc.c ****         {
1390:Generated_Source\PSoC5/adc.c ****             /* Third Config */
1391:Generated_Source\PSoC5/adc.c ****             adc_DEC_CR_REG      = adc_CFG3_DEC_CR;
1392:Generated_Source\PSoC5/adc.c ****             adc_DEC_SHIFT1_REG  = adc_CFG3_DEC_SHIFT1;
1393:Generated_Source\PSoC5/adc.c ****             adc_DEC_SHIFT2_REG  = adc_CFG3_DEC_SHIFT2;
1394:Generated_Source\PSoC5/adc.c ****             adc_DEC_DR2_REG     = adc_CFG3_DEC_DR2;
1395:Generated_Source\PSoC5/adc.c ****             adc_DEC_DR2H_REG    = adc_CFG3_DEC_DR2H;
1396:Generated_Source\PSoC5/adc.c ****             adc_DEC_DR1_REG     = adc_CFG3_DEC_DR1;
1397:Generated_Source\PSoC5/adc.c ****             adc_DEC_OCOR_REG    = adc_CFG3_DEC_OCOR;
1398:Generated_Source\PSoC5/adc.c ****             adc_DEC_OCORM_REG   = adc_CFG3_DEC_OCORM;
1399:Generated_Source\PSoC5/adc.c ****             adc_DEC_OCORH_REG   = adc_CFG3_DEC_OCORH;
ARM GAS  C:\Users\hp\AppData\Local\Temp\ccOWzvx9.s 			page 26


1400:Generated_Source\PSoC5/adc.c ****             adc_DEC_COHER_REG   = adc_CFG3_DEC_COHER;
1401:Generated_Source\PSoC5/adc.c **** 
1402:Generated_Source\PSoC5/adc.c ****             adc_DSM_CR4_REG     = adc_CFG3_DSM_CR4;
1403:Generated_Source\PSoC5/adc.c ****             adc_DSM_CR5_REG     = adc_CFG3_DSM_CR5;
1404:Generated_Source\PSoC5/adc.c ****             adc_DSM_CR6_REG     = adc_CFG3_DSM_CR6;
1405:Generated_Source\PSoC5/adc.c ****             adc_DSM_CR7_REG     = adc_CFG3_DSM_CR7;
1406:Generated_Source\PSoC5/adc.c ****             adc_DSM_CR10_REG    = adc_CFG3_DSM_CR10;
1407:Generated_Source\PSoC5/adc.c ****             adc_DSM_CR11_REG    = adc_CFG3_DSM_CR11;
1408:Generated_Source\PSoC5/adc.c ****             adc_DSM_CR12_REG    = adc_CFG3_DSM_CR12;
1409:Generated_Source\PSoC5/adc.c ****             adc_DSM_CR14_REG    = adc_CFG3_DSM_CR14;
1410:Generated_Source\PSoC5/adc.c ****             adc_DSM_CR15_REG    = adc_CFG3_DSM_CR15;
1411:Generated_Source\PSoC5/adc.c ****             adc_DSM_CR16_REG    = adc_CFG3_DSM_CR16;
1412:Generated_Source\PSoC5/adc.c ****             adc_DSM_CR17_REG    = adc_CFG3_DSM_CR17;
1413:Generated_Source\PSoC5/adc.c ****             /* Set DSM_REF0_REG by disabling and enabling the PRESS circuit */
1414:Generated_Source\PSoC5/adc.c ****             adc_SetDSMRef0Reg(adc_CFG3_DSM_REF0);
1415:Generated_Source\PSoC5/adc.c ****             adc_DSM_REF2_REG    = adc_CFG3_DSM_REF2;
1416:Generated_Source\PSoC5/adc.c ****             adc_DSM_REF3_REG    = adc_CFG3_DSM_REF3;
1417:Generated_Source\PSoC5/adc.c **** 
1418:Generated_Source\PSoC5/adc.c ****             adc_DSM_BUF0_REG    = adc_CFG3_DSM_BUF0;
1419:Generated_Source\PSoC5/adc.c ****             adc_DSM_BUF1_REG    = adc_CFG3_DSM_BUF1;
1420:Generated_Source\PSoC5/adc.c ****             adc_DSM_BUF2_REG    = adc_CFG3_DSM_BUF2;
1421:Generated_Source\PSoC5/adc.c ****             adc_DSM_BUF3_REG    = adc_CFG3_DSM_BUF3;
1422:Generated_Source\PSoC5/adc.c **** 
1423:Generated_Source\PSoC5/adc.c ****             /* To select either Vssa or Vref to -ve input of DSM depending on
1424:Generated_Source\PSoC5/adc.c ****             *  the input range selected.
1425:Generated_Source\PSoC5/adc.c ****             */
1426:Generated_Source\PSoC5/adc.c ****             #if(adc_DEFAULT_INPUT_MODE)
1427:Generated_Source\PSoC5/adc.c ****                 #if (adc_CFG3_INPUT_RANGE == adc_IR_VSSA_TO_2VREF)
1428:Generated_Source\PSoC5/adc.c ****                     adc_AMux_Select(1u);
1429:Generated_Source\PSoC5/adc.c ****                 #else
1430:Generated_Source\PSoC5/adc.c ****                     adc_AMux_Select(0u);
1431:Generated_Source\PSoC5/adc.c ****                 #endif /* adc_IR_VSSA_TO_2VREF) */
1432:Generated_Source\PSoC5/adc.c ****             #endif /* adc_DEFAULT_INPUT_MODE */
1433:Generated_Source\PSoC5/adc.c **** 
1434:Generated_Source\PSoC5/adc.c ****             /* Set the Conversion stop if resolution is above 16 bit and
1435:Generated_Source\PSoC5/adc.c ****                conversion  mode is Single sample */
1436:Generated_Source\PSoC5/adc.c ****             #if(adc_CFG3_RESOLUTION > 16 && \
1437:Generated_Source\PSoC5/adc.c ****                 adc_CFG3_CONV_MODE == adc_MODE_SINGLE_SAMPLE)
1438:Generated_Source\PSoC5/adc.c ****                 adc_stopConversion = 1u;
1439:Generated_Source\PSoC5/adc.c ****             #endif /* Single sample with resolution above 16 bits */
1440:Generated_Source\PSoC5/adc.c **** 
1441:Generated_Source\PSoC5/adc.c ****             adc_CountsPerVolt = (int32)adc_CFG3_COUNTS_PER_VOLT;
1442:Generated_Source\PSoC5/adc.c **** 
1443:Generated_Source\PSoC5/adc.c ****             adc_Ext_CP_Clk_SetDividerRegister(adc_CFG3_CP_CLK_DIVIDER, 1u);
1444:Generated_Source\PSoC5/adc.c **** 
1445:Generated_Source\PSoC5/adc.c ****             /* This is only valid if there is an internal clock */
1446:Generated_Source\PSoC5/adc.c ****             #if(adc_DEFAULT_INTERNAL_CLK)
1447:Generated_Source\PSoC5/adc.c ****                 adc_theACLK_SetDividerRegister(adc_CFG3_ADC_CLK_DIVIDER, 1u);
1448:Generated_Source\PSoC5/adc.c ****             #endif /* adc_DEFAULT_INTERNAL_CLK */
1449:Generated_Source\PSoC5/adc.c **** 
1450:Generated_Source\PSoC5/adc.c ****             #if(adc_IRQ_REMOVE == 0u)
1451:Generated_Source\PSoC5/adc.c ****                 /* Set interrupt vector */
1452:Generated_Source\PSoC5/adc.c ****                 (void)CyIntSetVector(adc_INTC_NUMBER, &adc_ISR3);
1453:Generated_Source\PSoC5/adc.c ****             #endif   /* End adc_IRQ_REMOVE */
1454:Generated_Source\PSoC5/adc.c ****         }
1455:Generated_Source\PSoC5/adc.c ****     #endif /* adc_DEFAULT_NUM_CONFIGS > 2 */
1456:Generated_Source\PSoC5/adc.c **** 
ARM GAS  C:\Users\hp\AppData\Local\Temp\ccOWzvx9.s 			page 27


1457:Generated_Source\PSoC5/adc.c ****     #if(adc_DEFAULT_NUM_CONFIGS > 3)
1458:Generated_Source\PSoC5/adc.c ****         if (config == 4u)
1459:Generated_Source\PSoC5/adc.c ****         {
1460:Generated_Source\PSoC5/adc.c ****             /* Fourth Config */
1461:Generated_Source\PSoC5/adc.c ****             adc_DEC_CR_REG      = adc_CFG4_DEC_CR;
1462:Generated_Source\PSoC5/adc.c ****             adc_DEC_SHIFT1_REG  = adc_CFG4_DEC_SHIFT1;
1463:Generated_Source\PSoC5/adc.c ****             adc_DEC_SHIFT2_REG  = adc_CFG4_DEC_SHIFT2;
1464:Generated_Source\PSoC5/adc.c ****             adc_DEC_DR2_REG     = adc_CFG4_DEC_DR2;
1465:Generated_Source\PSoC5/adc.c ****             adc_DEC_DR2H_REG    = adc_CFG4_DEC_DR2H;
1466:Generated_Source\PSoC5/adc.c ****             adc_DEC_DR1_REG     = adc_CFG4_DEC_DR1;
1467:Generated_Source\PSoC5/adc.c ****             adc_DEC_OCOR_REG    = adc_CFG4_DEC_OCOR;
1468:Generated_Source\PSoC5/adc.c ****             adc_DEC_OCORM_REG   = adc_CFG4_DEC_OCORM;
1469:Generated_Source\PSoC5/adc.c ****             adc_DEC_OCORH_REG   = adc_CFG4_DEC_OCORH;
1470:Generated_Source\PSoC5/adc.c ****             adc_DEC_COHER_REG   = adc_CFG4_DEC_COHER;
1471:Generated_Source\PSoC5/adc.c **** 
1472:Generated_Source\PSoC5/adc.c ****             adc_DSM_CR4_REG     = adc_CFG4_DSM_CR4;
1473:Generated_Source\PSoC5/adc.c ****             adc_DSM_CR5_REG     = adc_CFG4_DSM_CR5;
1474:Generated_Source\PSoC5/adc.c ****             adc_DSM_CR6_REG     = adc_CFG4_DSM_CR6;
1475:Generated_Source\PSoC5/adc.c ****             adc_DSM_CR7_REG     = adc_CFG4_DSM_CR7;
1476:Generated_Source\PSoC5/adc.c ****             adc_DSM_CR10_REG    = adc_CFG4_DSM_CR10;
1477:Generated_Source\PSoC5/adc.c ****             adc_DSM_CR11_REG    = adc_CFG4_DSM_CR11;
1478:Generated_Source\PSoC5/adc.c ****             adc_DSM_CR12_REG    = adc_CFG4_DSM_CR12;
1479:Generated_Source\PSoC5/adc.c ****             adc_DSM_CR14_REG    = adc_CFG4_DSM_CR14;
1480:Generated_Source\PSoC5/adc.c ****             adc_DSM_CR15_REG    = adc_CFG4_DSM_CR15;
1481:Generated_Source\PSoC5/adc.c ****             adc_DSM_CR16_REG    = adc_CFG4_DSM_CR16;
1482:Generated_Source\PSoC5/adc.c ****             adc_DSM_CR17_REG    = adc_CFG4_DSM_CR17;
1483:Generated_Source\PSoC5/adc.c ****             /* Set DSM_REF0_REG by disabling and enabling the PRESS circuit */
1484:Generated_Source\PSoC5/adc.c ****             adc_SetDSMRef0Reg(adc_CFG4_DSM_REF0);
1485:Generated_Source\PSoC5/adc.c ****             adc_DSM_REF2_REG    = adc_CFG4_DSM_REF2;
1486:Generated_Source\PSoC5/adc.c ****             adc_DSM_REF3_REG    = adc_CFG4_DSM_REF3;
1487:Generated_Source\PSoC5/adc.c **** 
1488:Generated_Source\PSoC5/adc.c ****             adc_DSM_BUF0_REG    = adc_CFG4_DSM_BUF0;
1489:Generated_Source\PSoC5/adc.c ****             adc_DSM_BUF1_REG    = adc_CFG4_DSM_BUF1;
1490:Generated_Source\PSoC5/adc.c ****             adc_DSM_BUF2_REG    = adc_CFG4_DSM_BUF2;
1491:Generated_Source\PSoC5/adc.c ****             adc_DSM_BUF3_REG    = adc_CFG4_DSM_BUF3;
1492:Generated_Source\PSoC5/adc.c **** 
1493:Generated_Source\PSoC5/adc.c ****             /* To select either Vssa or Vref to -ve input of DSM depending on
1494:Generated_Source\PSoC5/adc.c ****             *  the input range selected.
1495:Generated_Source\PSoC5/adc.c ****             */
1496:Generated_Source\PSoC5/adc.c ****             #if(adc_DEFAULT_INPUT_MODE)
1497:Generated_Source\PSoC5/adc.c ****                 #if (adc_CFG4_INPUT_RANGE == adc_IR_VSSA_TO_2VREF)
1498:Generated_Source\PSoC5/adc.c ****                     adc_AMux_Select(1u);
1499:Generated_Source\PSoC5/adc.c ****                 #else
1500:Generated_Source\PSoC5/adc.c ****                     adc_AMux_Select(0u);
1501:Generated_Source\PSoC5/adc.c ****                 #endif /* adc_IR_VSSA_TO_2VREF) */
1502:Generated_Source\PSoC5/adc.c ****             #endif /* adc_DEFAULT_INPUT_MODE */
1503:Generated_Source\PSoC5/adc.c **** 
1504:Generated_Source\PSoC5/adc.c ****             /* Set the Conversion stop if resolution is above 16 bit and
1505:Generated_Source\PSoC5/adc.c ****                conversion mode is Single sample */
1506:Generated_Source\PSoC5/adc.c ****             #if(adc_CFG4_RESOLUTION > 16 && \
1507:Generated_Source\PSoC5/adc.c ****                 adc_CFG4_CONV_MODE == adc_MODE_SINGLE_SAMPLE)
1508:Generated_Source\PSoC5/adc.c ****                 adc_stopConversion = 1u;
1509:Generated_Source\PSoC5/adc.c ****             #endif /* Single sample with resolution above 16 bits */
1510:Generated_Source\PSoC5/adc.c **** 
1511:Generated_Source\PSoC5/adc.c ****             adc_CountsPerVolt = (int32)adc_CFG4_COUNTS_PER_VOLT;
1512:Generated_Source\PSoC5/adc.c **** 
1513:Generated_Source\PSoC5/adc.c ****             adc_Ext_CP_Clk_SetDividerRegister(adc_CFG4_CP_CLK_DIVIDER, 1u);
ARM GAS  C:\Users\hp\AppData\Local\Temp\ccOWzvx9.s 			page 28


1514:Generated_Source\PSoC5/adc.c **** 
1515:Generated_Source\PSoC5/adc.c ****             /* This is only valid if there is an internal clock */
1516:Generated_Source\PSoC5/adc.c ****             #if(adc_DEFAULT_INTERNAL_CLK)
1517:Generated_Source\PSoC5/adc.c ****                 adc_theACLK_SetDividerRegister(adc_CFG4_ADC_CLK_DIVIDER, 1u);
1518:Generated_Source\PSoC5/adc.c ****             #endif /* adc_DEFAULT_INTERNAL_CLK */
1519:Generated_Source\PSoC5/adc.c **** 
1520:Generated_Source\PSoC5/adc.c ****             #if(adc_IRQ_REMOVE == 0u)
1521:Generated_Source\PSoC5/adc.c ****                 /* Set interrupt vector */
1522:Generated_Source\PSoC5/adc.c ****                 (void)CyIntSetVector(adc_INTC_NUMBER, &adc_ISR4);
1523:Generated_Source\PSoC5/adc.c ****             #endif   /* End adc_IRQ_REMOVE */
1524:Generated_Source\PSoC5/adc.c ****         }
1525:Generated_Source\PSoC5/adc.c ****     #endif /* adc_DEFAULT_NUM_CONFIGS > 3 */
1526:Generated_Source\PSoC5/adc.c **** }
1527:Generated_Source\PSoC5/adc.c **** 
1528:Generated_Source\PSoC5/adc.c **** 
1529:Generated_Source\PSoC5/adc.c **** /*******************************************************************************
1530:Generated_Source\PSoC5/adc.c **** * Function Name: adc_SelectCofiguration
1531:Generated_Source\PSoC5/adc.c **** ********************************************************************************
1532:Generated_Source\PSoC5/adc.c **** *
1533:Generated_Source\PSoC5/adc.c **** * Summary:
1534:Generated_Source\PSoC5/adc.c **** *  Sets one of up to four ADC configurations. Before setting the new
1535:Generated_Source\PSoC5/adc.c **** *  configuration, the ADC is stopped and powered down. After setting
1536:Generated_Source\PSoC5/adc.c **** *  the new configuration, the ADC can be powered and conversion
1537:Generated_Source\PSoC5/adc.c **** *  can be restarted depending up on the value of second parameter
1538:Generated_Source\PSoC5/adc.c **** *  restart. If the value of this parameter is 1, then ADC will be
1539:Generated_Source\PSoC5/adc.c **** *  restarted. If this value is zero, then user must call adc_Start
1540:Generated_Source\PSoC5/adc.c **** *  and adc_StartConvert() to restart the conversion.
1541:Generated_Source\PSoC5/adc.c **** *
1542:Generated_Source\PSoC5/adc.c **** * Parameters:
1543:Generated_Source\PSoC5/adc.c **** *  config:  configuration user wants to select.
1544:Generated_Source\PSoC5/adc.c **** *           Valid range: 1..4
1545:Generated_Source\PSoC5/adc.c **** *  restart:  Restart option. 1 means start the ADC and restart the conversion.
1546:Generated_Source\PSoC5/adc.c **** *                            0 means do not start the ADC and conversion.
1547:Generated_Source\PSoC5/adc.c **** *
1548:Generated_Source\PSoC5/adc.c **** * Return:
1549:Generated_Source\PSoC5/adc.c **** *  None
1550:Generated_Source\PSoC5/adc.c **** *
1551:Generated_Source\PSoC5/adc.c **** *******************************************************************************/
1552:Generated_Source\PSoC5/adc.c **** void adc_SelectConfiguration(uint8 config, uint8 restart)
1553:Generated_Source\PSoC5/adc.c ****                                               
1554:Generated_Source\PSoC5/adc.c **** {
1555:Generated_Source\PSoC5/adc.c ****     /* Check whether the configuration number is valid or not */
1556:Generated_Source\PSoC5/adc.c ****     if((config > 0u) && (config <= adc_DEFAULT_NUM_CONFIGS))
1557:Generated_Source\PSoC5/adc.c ****     {
1558:Generated_Source\PSoC5/adc.c ****         /* Set the flag to ensure Start() API doesn't override the 
1559:Generated_Source\PSoC5/adc.c **** 		*  selected configuration
1560:Generated_Source\PSoC5/adc.c **** 		*/
1561:Generated_Source\PSoC5/adc.c ****         if(adc_initVar == 0u)
1562:Generated_Source\PSoC5/adc.c ****         {
1563:Generated_Source\PSoC5/adc.c ****             adc_started = 1u;
1564:Generated_Source\PSoC5/adc.c ****         }
1565:Generated_Source\PSoC5/adc.c **** 
1566:Generated_Source\PSoC5/adc.c ****         /* Update the config flag */
1567:Generated_Source\PSoC5/adc.c ****         adc_Config = config;
1568:Generated_Source\PSoC5/adc.c **** 
1569:Generated_Source\PSoC5/adc.c ****         /* Stop the ADC  */
1570:Generated_Source\PSoC5/adc.c ****         adc_Stop();
ARM GAS  C:\Users\hp\AppData\Local\Temp\ccOWzvx9.s 			page 29


1571:Generated_Source\PSoC5/adc.c **** 
1572:Generated_Source\PSoC5/adc.c ****         /* Set the  ADC registers based on the configuration */
1573:Generated_Source\PSoC5/adc.c ****         adc_InitConfig(config);
1574:Generated_Source\PSoC5/adc.c **** 
1575:Generated_Source\PSoC5/adc.c ****         /* Compensate the gain */
1576:Generated_Source\PSoC5/adc.c ****         adc_DEC_GVAL_REG = adc_gcor[config - 1u].gval;
1577:Generated_Source\PSoC5/adc.c ****         CY_SET_REG16(adc_DEC_GCOR_16B_PTR, adc_gcor[config - 1u].gcor);
1578:Generated_Source\PSoC5/adc.c **** 
1579:Generated_Source\PSoC5/adc.c ****         if(restart == 1u)
1580:Generated_Source\PSoC5/adc.c ****         {
1581:Generated_Source\PSoC5/adc.c ****             /* Restart the ADC */
1582:Generated_Source\PSoC5/adc.c ****             adc_Start();
1583:Generated_Source\PSoC5/adc.c **** 
1584:Generated_Source\PSoC5/adc.c ****             /* Restart the ADC conversion */
1585:Generated_Source\PSoC5/adc.c ****             adc_StartConvert();
1586:Generated_Source\PSoC5/adc.c ****         }
1587:Generated_Source\PSoC5/adc.c ****     }
1588:Generated_Source\PSoC5/adc.c ****     else
1589:Generated_Source\PSoC5/adc.c ****     {
1590:Generated_Source\PSoC5/adc.c ****         /* Halt CPU in debug mode if config is out of valid range */
1591:Generated_Source\PSoC5/adc.c ****         CYASSERT(0u != 0u);
1592:Generated_Source\PSoC5/adc.c ****     }
1593:Generated_Source\PSoC5/adc.c **** }
1594:Generated_Source\PSoC5/adc.c **** 
1595:Generated_Source\PSoC5/adc.c **** 
1596:Generated_Source\PSoC5/adc.c **** /*******************************************************************************
1597:Generated_Source\PSoC5/adc.c **** * Function Name: adc_GainCompensation
1598:Generated_Source\PSoC5/adc.c **** ********************************************************************************
1599:Generated_Source\PSoC5/adc.c **** *
1600:Generated_Source\PSoC5/adc.c **** * Summary:
1601:Generated_Source\PSoC5/adc.c **** *  This API calculates the trim value and then store this to gcor structure.
1602:Generated_Source\PSoC5/adc.c **** *
1603:Generated_Source\PSoC5/adc.c **** * Parameters:
1604:Generated_Source\PSoC5/adc.c **** *  inputRange:  input range for which trim value is to be calculated.
1605:Generated_Source\PSoC5/adc.c **** *  IdealDecGain:  Ideal Decimator gain for the selected resolution and
1606:Generated_Source\PSoC5/adc.c **** *                 conversion  mode.
1607:Generated_Source\PSoC5/adc.c **** *  IdealOddDecGain:  Ideal odd decimation gain for the selected resolution and
1608:Generated_Source\PSoC5/adc.c ****                      conversion mode.
1609:Generated_Source\PSoC5/adc.c **** *  resolution:  Resolution to select the proper flash location for trim value.
1610:Generated_Source\PSoC5/adc.c **** *  config:      Specifies the configuration number
1611:Generated_Source\PSoC5/adc.c **** *               Valid range: 1..4
1612:Generated_Source\PSoC5/adc.c **** *
1613:Generated_Source\PSoC5/adc.c **** * Return:
1614:Generated_Source\PSoC5/adc.c **** *  None
1615:Generated_Source\PSoC5/adc.c **** *
1616:Generated_Source\PSoC5/adc.c **** *******************************************************************************/
1617:Generated_Source\PSoC5/adc.c **** static void adc_GainCompensation(uint8 inputRange, uint16 idealDecGain, uint16 idealOddDecGain,
1618:Generated_Source\PSoC5/adc.c ****                               uint8 resolution, uint8 config) 
1619:Generated_Source\PSoC5/adc.c **** {
  27              		.loc 1 1619 0
  28              		.cfi_startproc
  29              		@ args = 4, pretend = 0, frame = 0
  30              		@ frame_needed = 0, uses_anonymous_args = 0
  31              	.LVL0:
  32 0000 10B5     		push	{r4, lr}
  33              		.cfi_def_cfa_offset 8
  34              		.cfi_offset 4, -8
ARM GAS  C:\Users\hp\AppData\Local\Temp\ccOWzvx9.s 			page 30


  35              		.cfi_offset 14, -4
  36 0002 9DF80840 		ldrb	r4, [sp, #8]	@ zero_extendqisi2
1620:Generated_Source\PSoC5/adc.c ****     int8 flash;
1621:Generated_Source\PSoC5/adc.c **** 	int32 normalised;
1622:Generated_Source\PSoC5/adc.c **** 	uint16 gcorValue;
1623:Generated_Source\PSoC5/adc.c ****     uint32 gcorTmp;
1624:Generated_Source\PSoC5/adc.c **** 
1625:Generated_Source\PSoC5/adc.c ****     if((config > 0u) && (config <= adc_DEFAULT_NUM_CONFIGS))
  37              		.loc 1 1625 0
  38 0006 012C     		cmp	r4, #1
  39 0008 51D1     		bne	.L2
1626:Generated_Source\PSoC5/adc.c ****     {
1627:Generated_Source\PSoC5/adc.c ****         switch(inputRange)
  40              		.loc 1 1627 0
  41 000a 0138     		subs	r0, r0, #1
  42              	.LVL1:
  43 000c 0928     		cmp	r0, #9
  44 000e 2ED8     		bhi	.L16
  45 0010 DFE800F0 		tbb	[pc, r0]
  46              	.L5:
  47 0014 05       		.byte	(.L4-.L5)/2
  48 0015 2D       		.byte	(.L16-.L5)/2
  49 0016 2D       		.byte	(.L16-.L5)/2
  50 0017 05       		.byte	(.L4-.L5)/2
  51 0018 2D       		.byte	(.L16-.L5)/2
  52 0019 2D       		.byte	(.L16-.L5)/2
  53 001a 0F       		.byte	(.L6-.L5)/2
  54 001b 19       		.byte	(.L7-.L5)/2
  55 001c 2D       		.byte	(.L16-.L5)/2
  56 001d 23       		.byte	(.L8-.L5)/2
  57              		.p2align 1
  58              	.L4:
1628:Generated_Source\PSoC5/adc.c ****         {
1629:Generated_Source\PSoC5/adc.c ****             case adc_IR_VNEG_VREF_DIFF:
1630:Generated_Source\PSoC5/adc.c ****             case adc_IR_VSSA_TO_2VREF:
1631:Generated_Source\PSoC5/adc.c ****                 /* Normalize the flash Value */
1632:Generated_Source\PSoC5/adc.c ****                 if(resolution > 15u)
  59              		.loc 1 1632 0
  60 001e 0F2B     		cmp	r3, #15
  61 0020 03D9     		bls	.L9
1633:Generated_Source\PSoC5/adc.c ****                 {
1634:Generated_Source\PSoC5/adc.c ****                     flash = adc_DEC_TRIM_VREF_DIFF_16_20;
  62              		.loc 1 1634 0
  63 0022 2548     		ldr	r0, .L18
  64 0024 0078     		ldrb	r0, [r0]	@ zero_extendqisi2
  65 0026 40B2     		sxtb	r0, r0
  66              	.LVL2:
  67 0028 22E0     		b	.L3
  68              	.LVL3:
  69              	.L9:
1635:Generated_Source\PSoC5/adc.c ****                 }
1636:Generated_Source\PSoC5/adc.c ****                 else
1637:Generated_Source\PSoC5/adc.c ****                 {
1638:Generated_Source\PSoC5/adc.c ****                     flash = adc_DEC_TRIM_VREF_DIFF_8_15;
  70              		.loc 1 1638 0
  71 002a 2448     		ldr	r0, .L18+4
  72 002c 0078     		ldrb	r0, [r0]	@ zero_extendqisi2
ARM GAS  C:\Users\hp\AppData\Local\Temp\ccOWzvx9.s 			page 31


  73 002e 40B2     		sxtb	r0, r0
  74              	.LVL4:
  75 0030 1EE0     		b	.L3
  76              	.LVL5:
  77              	.L6:
1639:Generated_Source\PSoC5/adc.c ****                 }
1640:Generated_Source\PSoC5/adc.c ****                 break;
1641:Generated_Source\PSoC5/adc.c **** 
1642:Generated_Source\PSoC5/adc.c ****             case adc_IR_VNEG_VREF_2_DIFF:
1643:Generated_Source\PSoC5/adc.c ****                 /* Normalize the flash Value */
1644:Generated_Source\PSoC5/adc.c ****                 if(resolution > 15u)
  78              		.loc 1 1644 0
  79 0032 0F2B     		cmp	r3, #15
  80 0034 03D9     		bls	.L10
1645:Generated_Source\PSoC5/adc.c ****                 {
1646:Generated_Source\PSoC5/adc.c ****                     flash = adc_DEC_TRIM_VREF_2_DIFF_16_20;
  81              		.loc 1 1646 0
  82 0036 2248     		ldr	r0, .L18+8
  83 0038 0078     		ldrb	r0, [r0]	@ zero_extendqisi2
  84 003a 40B2     		sxtb	r0, r0
  85              	.LVL6:
  86 003c 18E0     		b	.L3
  87              	.LVL7:
  88              	.L10:
1647:Generated_Source\PSoC5/adc.c ****                 }
1648:Generated_Source\PSoC5/adc.c ****                 else
1649:Generated_Source\PSoC5/adc.c ****                 {
1650:Generated_Source\PSoC5/adc.c ****                     flash = adc_DEC_TRIM_VREF_2_DIFF_8_15;
  89              		.loc 1 1650 0
  90 003e 2148     		ldr	r0, .L18+12
  91 0040 0078     		ldrb	r0, [r0]	@ zero_extendqisi2
  92 0042 40B2     		sxtb	r0, r0
  93              	.LVL8:
  94 0044 14E0     		b	.L3
  95              	.LVL9:
  96              	.L7:
1651:Generated_Source\PSoC5/adc.c ****                 }
1652:Generated_Source\PSoC5/adc.c ****                 break;
1653:Generated_Source\PSoC5/adc.c **** 
1654:Generated_Source\PSoC5/adc.c ****             case adc_IR_VNEG_VREF_4_DIFF:
1655:Generated_Source\PSoC5/adc.c ****                 /* Normalize the flash Value */
1656:Generated_Source\PSoC5/adc.c ****                 if(resolution > 15u)
  97              		.loc 1 1656 0
  98 0046 0F2B     		cmp	r3, #15
  99 0048 03D9     		bls	.L11
1657:Generated_Source\PSoC5/adc.c ****                 {
1658:Generated_Source\PSoC5/adc.c ****                     flash = adc_DEC_TRIM_VREF_4_DIFF_16_20;
 100              		.loc 1 1658 0
 101 004a 1F48     		ldr	r0, .L18+16
 102 004c 0078     		ldrb	r0, [r0]	@ zero_extendqisi2
 103 004e 40B2     		sxtb	r0, r0
 104              	.LVL10:
 105 0050 0EE0     		b	.L3
 106              	.LVL11:
 107              	.L11:
1659:Generated_Source\PSoC5/adc.c ****                 }
1660:Generated_Source\PSoC5/adc.c ****                 else
ARM GAS  C:\Users\hp\AppData\Local\Temp\ccOWzvx9.s 			page 32


1661:Generated_Source\PSoC5/adc.c ****                 {
1662:Generated_Source\PSoC5/adc.c ****                     flash = adc_DEC_TRIM_VREF_4_DIFF_8_15;
 108              		.loc 1 1662 0
 109 0052 1E48     		ldr	r0, .L18+20
 110 0054 0078     		ldrb	r0, [r0]	@ zero_extendqisi2
 111 0056 40B2     		sxtb	r0, r0
 112              	.LVL12:
 113 0058 0AE0     		b	.L3
 114              	.LVL13:
 115              	.L8:
1663:Generated_Source\PSoC5/adc.c ****                 }
1664:Generated_Source\PSoC5/adc.c ****                 break;
1665:Generated_Source\PSoC5/adc.c **** 
1666:Generated_Source\PSoC5/adc.c ****             case adc_IR_VNEG_VREF_16_DIFF:
1667:Generated_Source\PSoC5/adc.c ****                 /* Normalize the flash Value */
1668:Generated_Source\PSoC5/adc.c ****                 if(resolution > 15u)
 116              		.loc 1 1668 0
 117 005a 0F2B     		cmp	r3, #15
 118 005c 03D9     		bls	.L12
1669:Generated_Source\PSoC5/adc.c ****                 {
1670:Generated_Source\PSoC5/adc.c ****                     flash = adc_DEC_TRIM_VREF_16_DIFF_16_20;
 119              		.loc 1 1670 0
 120 005e 1C48     		ldr	r0, .L18+24
 121 0060 0078     		ldrb	r0, [r0]	@ zero_extendqisi2
 122 0062 40B2     		sxtb	r0, r0
 123              	.LVL14:
 124 0064 04E0     		b	.L3
 125              	.LVL15:
 126              	.L12:
1671:Generated_Source\PSoC5/adc.c ****                 }
1672:Generated_Source\PSoC5/adc.c ****                 else
1673:Generated_Source\PSoC5/adc.c ****                 {
1674:Generated_Source\PSoC5/adc.c ****                     flash = adc_DEC_TRIM_VREF_16_DIFF_8_15;
 127              		.loc 1 1674 0
 128 0066 1B48     		ldr	r0, .L18+28
 129 0068 0078     		ldrb	r0, [r0]	@ zero_extendqisi2
 130 006a 40B2     		sxtb	r0, r0
 131              	.LVL16:
 132 006c 00E0     		b	.L3
 133              	.LVL17:
 134              	.L16:
1675:Generated_Source\PSoC5/adc.c ****                 }
1676:Generated_Source\PSoC5/adc.c ****                 break;
1677:Generated_Source\PSoC5/adc.c **** 
1678:Generated_Source\PSoC5/adc.c ****             default:
1679:Generated_Source\PSoC5/adc.c ****                 flash = 0;
 135              		.loc 1 1679 0
 136 006e 0020     		movs	r0, #0
 137              	.L3:
 138              	.LVL18:
1680:Generated_Source\PSoC5/adc.c ****                 break;
1681:Generated_Source\PSoC5/adc.c ****         }
1682:Generated_Source\PSoC5/adc.c **** 
1683:Generated_Source\PSoC5/adc.c ****         /* Add two values */
1684:Generated_Source\PSoC5/adc.c **** 		normalised = (int32)idealDecGain + ((int32)flash * 32);
 139              		.loc 1 1684 0
 140 0070 01EB4011 		add	r1, r1, r0, lsl #5
ARM GAS  C:\Users\hp\AppData\Local\Temp\ccOWzvx9.s 			page 33


 141              	.LVL19:
1685:Generated_Source\PSoC5/adc.c ****         gcorTmp = (uint32)normalised * (uint32)idealOddDecGain;
 142              		.loc 1 1685 0
 143 0074 01FB02F1 		mul	r1, r1, r2
 144              	.LVL20:
1686:Generated_Source\PSoC5/adc.c ****         gcorValue = (uint16)(gcorTmp / adc_IDEAL_GAIN_CONST);
 145              		.loc 1 1686 0
 146 0078 C90B     		lsrs	r1, r1, #15
 147              	.LVL21:
 148 007a 8AB2     		uxth	r2, r1
 149              	.LVL22:
1687:Generated_Source\PSoC5/adc.c **** 
1688:Generated_Source\PSoC5/adc.c ****         if (resolution < (adc_MAX_GVAL - 1u))
 150              		.loc 1 1688 0
 151 007c 0D2B     		cmp	r3, #13
 152 007e 0BD8     		bhi	.L13
1689:Generated_Source\PSoC5/adc.c ****         {
1690:Generated_Source\PSoC5/adc.c ****             gcorValue = (gcorValue >> (adc_MAX_GVAL - (resolution + 1u)));
 153              		.loc 1 1690 0
 154 0080 C3F10E02 		rsb	r2, r3, #14
 155              	.LVL23:
 156 0084 89B2     		uxth	r1, r1
 157 0086 1141     		asrs	r1, r1, r2
 158              	.LVL24:
 159 0088 8AB2     		uxth	r2, r1
 160              	.LVL25:
1691:Generated_Source\PSoC5/adc.c ****             adc_gcor[config - 1u].gval = (resolution + 1u);
 161              		.loc 1 1691 0
 162 008a 611E     		subs	r1, r4, #1
 163 008c 1248     		ldr	r0, .L18+32
 164              	.LVL26:
 165 008e 00EB8101 		add	r1, r0, r1, lsl #2
 166 0092 0133     		adds	r3, r3, #1
 167              	.LVL27:
 168 0094 8B70     		strb	r3, [r1, #2]
 169 0096 05E0     		b	.L14
 170              	.LVL28:
 171              	.L13:
1692:Generated_Source\PSoC5/adc.c ****         }
1693:Generated_Source\PSoC5/adc.c ****         else
1694:Generated_Source\PSoC5/adc.c ****         {
1695:Generated_Source\PSoC5/adc.c ****             /* Use all 16 bits */
1696:Generated_Source\PSoC5/adc.c ****             adc_gcor[config - 1u].gval = adc_MAX_GVAL;
 172              		.loc 1 1696 0
 173 0098 631E     		subs	r3, r4, #1
 174              	.LVL29:
 175 009a 0F49     		ldr	r1, .L18+32
 176 009c 01EB8303 		add	r3, r1, r3, lsl #2
 177 00a0 0F21     		movs	r1, #15
 178 00a2 9970     		strb	r1, [r3, #2]
 179              	.LVL30:
 180              	.L14:
1697:Generated_Source\PSoC5/adc.c ****         }
1698:Generated_Source\PSoC5/adc.c **** 
1699:Generated_Source\PSoC5/adc.c ****         /* Save the gain correction register value */
1700:Generated_Source\PSoC5/adc.c ****         adc_gcor[config - 1u].gcor = gcorValue;
 181              		.loc 1 1700 0
ARM GAS  C:\Users\hp\AppData\Local\Temp\ccOWzvx9.s 			page 34


 182 00a4 013C     		subs	r4, r4, #1
 183 00a6 0C4B     		ldr	r3, .L18+32
 184 00a8 23F82420 		strh	r2, [r3, r4, lsl #2]	@ movhi
 185 00ac 10BD     		pop	{r4, pc}
 186              	.LVL31:
 187              	.L2:
1701:Generated_Source\PSoC5/adc.c ****     }
1702:Generated_Source\PSoC5/adc.c ****     else
1703:Generated_Source\PSoC5/adc.c ****     {
1704:Generated_Source\PSoC5/adc.c ****         /* Halt CPU in debug mode if config is out of valid range */
1705:Generated_Source\PSoC5/adc.c ****         CYASSERT(0u != 0u);
 188              		.loc 1 1705 0 discriminator 1
 189 00ae 0020     		movs	r0, #0
 190              	.LVL32:
 191 00b0 FFF7FEFF 		bl	CyHalt
 192              	.LVL33:
 193 00b4 10BD     		pop	{r4, pc}
 194              	.LVL34:
 195              	.L19:
 196 00b6 00BF     		.align	2
 197              	.L18:
 198 00b8 18010049 		.word	1224737048
 199 00bc 1C010049 		.word	1224737052
 200 00c0 19010049 		.word	1224737049
 201 00c4 1D010049 		.word	1224737053
 202 00c8 1A010049 		.word	1224737050
 203 00cc 1E010049 		.word	1224737054
 204 00d0 1B010049 		.word	1224737051
 205 00d4 1F010049 		.word	1224737055
 206 00d8 00000000 		.word	.LANCHOR0
 207              		.cfi_endproc
 208              	.LFE21:
 209              		.size	adc_GainCompensation, .-adc_GainCompensation
 210              		.section	.text.adc_SetDSMRef0Reg,"ax",%progbits
 211              		.align	2
 212              		.thumb
 213              		.thumb_func
 214              		.type	adc_SetDSMRef0Reg, %function
 215              	adc_SetDSMRef0Reg:
 216              	.LFB22:
1706:Generated_Source\PSoC5/adc.c ****     }
1707:Generated_Source\PSoC5/adc.c **** }
1708:Generated_Source\PSoC5/adc.c **** 
1709:Generated_Source\PSoC5/adc.c **** 
1710:Generated_Source\PSoC5/adc.c **** /******************************************************************************
1711:Generated_Source\PSoC5/adc.c **** * Function Name: adc_SetDSMRef0Reg(uint8)
1712:Generated_Source\PSoC5/adc.c **** ******************************************************************************
1713:Generated_Source\PSoC5/adc.c **** *
1714:Generated_Source\PSoC5/adc.c **** * Summary:
1715:Generated_Source\PSoC5/adc.c **** *  This API sets the DSM_REF0 register. This is written for internal use.
1716:Generated_Source\PSoC5/adc.c **** *
1717:Generated_Source\PSoC5/adc.c **** * Parameters:
1718:Generated_Source\PSoC5/adc.c **** *  value:  Value to be written to DSM_REF0 register.
1719:Generated_Source\PSoC5/adc.c **** *
1720:Generated_Source\PSoC5/adc.c **** * Return:
1721:Generated_Source\PSoC5/adc.c **** *  None
1722:Generated_Source\PSoC5/adc.c **** *
ARM GAS  C:\Users\hp\AppData\Local\Temp\ccOWzvx9.s 			page 35


1723:Generated_Source\PSoC5/adc.c **** ******************************************************************************/
1724:Generated_Source\PSoC5/adc.c **** static void adc_SetDSMRef0Reg(uint8 value) 
1725:Generated_Source\PSoC5/adc.c **** {
 217              		.loc 1 1725 0
 218              		.cfi_startproc
 219              		@ args = 0, pretend = 0, frame = 0
 220              		@ frame_needed = 0, uses_anonymous_args = 0
 221              	.LVL35:
 222 0000 F8B5     		push	{r3, r4, r5, r6, r7, lr}
 223              		.cfi_def_cfa_offset 24
 224              		.cfi_offset 3, -24
 225              		.cfi_offset 4, -20
 226              		.cfi_offset 5, -16
 227              		.cfi_offset 6, -12
 228              		.cfi_offset 7, -8
 229              		.cfi_offset 14, -4
 230 0002 0746     		mov	r7, r0
1726:Generated_Source\PSoC5/adc.c ****     uint8 enableInterrupts;
1727:Generated_Source\PSoC5/adc.c ****     enableInterrupts = CyEnterCriticalSection();
 231              		.loc 1 1727 0
 232 0004 FFF7FEFF 		bl	CyEnterCriticalSection
 233              	.LVL36:
 234 0008 0646     		mov	r6, r0
 235              	.LVL37:
1728:Generated_Source\PSoC5/adc.c **** 
1729:Generated_Source\PSoC5/adc.c ****     /* Disable PRES, Enable power to VCMBUF0, REFBUF0 and REFBUF1, enable PRES */
1730:Generated_Source\PSoC5/adc.c ****     adc_RESET_CR4_REG |= (adc_IGNORE_PRESA1 | adc_IGNORE_PRESD1);
 236              		.loc 1 1730 0
 237 000a 0D4D     		ldr	r5, .L22
 238 000c 2B78     		ldrb	r3, [r5]	@ zero_extendqisi2
 239 000e 43F00303 		orr	r3, r3, #3
 240 0012 2B70     		strb	r3, [r5]
1731:Generated_Source\PSoC5/adc.c ****     adc_RESET_CR5_REG |= (adc_IGNORE_PRESA2 | adc_IGNORE_PRESD2);
 241              		.loc 1 1731 0
 242 0014 0B4C     		ldr	r4, .L22+4
 243 0016 2378     		ldrb	r3, [r4]	@ zero_extendqisi2
 244 0018 43F00303 		orr	r3, r3, #3
 245 001c 2370     		strb	r3, [r4]
1732:Generated_Source\PSoC5/adc.c ****     adc_DSM_REF0_REG = value;
 246              		.loc 1 1732 0
 247 001e 0A4B     		ldr	r3, .L22+8
 248 0020 1F70     		strb	r7, [r3]
1733:Generated_Source\PSoC5/adc.c **** 
1734:Generated_Source\PSoC5/adc.c ****     /* Wait for 3 microseconds */
1735:Generated_Source\PSoC5/adc.c ****     CyDelayUs(adc_PRES_DELAY_TIME);
 249              		.loc 1 1735 0
 250 0022 0320     		movs	r0, #3
 251 0024 FFF7FEFF 		bl	CyDelayUs
 252              	.LVL38:
1736:Generated_Source\PSoC5/adc.c ****     /* Enable the press circuit */
1737:Generated_Source\PSoC5/adc.c ****     adc_RESET_CR4_REG &= (uint8)~(adc_IGNORE_PRESA1 | adc_IGNORE_PRESD1);
 253              		.loc 1 1737 0
 254 0028 2B78     		ldrb	r3, [r5]	@ zero_extendqisi2
 255 002a 03F0FC03 		and	r3, r3, #252
 256 002e 2B70     		strb	r3, [r5]
1738:Generated_Source\PSoC5/adc.c ****     adc_RESET_CR5_REG &= (uint8)~(adc_IGNORE_PRESA2 | adc_IGNORE_PRESD2);
 257              		.loc 1 1738 0
ARM GAS  C:\Users\hp\AppData\Local\Temp\ccOWzvx9.s 			page 36


 258 0030 2378     		ldrb	r3, [r4]	@ zero_extendqisi2
 259 0032 03F0FC03 		and	r3, r3, #252
 260 0036 2370     		strb	r3, [r4]
1739:Generated_Source\PSoC5/adc.c **** 
1740:Generated_Source\PSoC5/adc.c ****     CyExitCriticalSection(enableInterrupts);
 261              		.loc 1 1740 0
 262 0038 3046     		mov	r0, r6
 263 003a FFF7FEFF 		bl	CyExitCriticalSection
 264              	.LVL39:
 265 003e F8BD     		pop	{r3, r4, r5, r6, r7, pc}
 266              	.LVL40:
 267              	.L23:
 268              		.align	2
 269              	.L22:
 270 0040 F8460040 		.word	1073759992
 271 0044 F9460040 		.word	1073759993
 272 0048 92580040 		.word	1073764498
 273              		.cfi_endproc
 274              	.LFE22:
 275              		.size	adc_SetDSMRef0Reg, .-adc_SetDSMRef0Reg
 276              		.section	.text.adc_InitConfig,"ax",%progbits
 277              		.align	2
 278              		.thumb
 279              		.thumb_func
 280              		.type	adc_InitConfig, %function
 281              	adc_InitConfig:
 282              	.LFB19:
1243:Generated_Source\PSoC5/adc.c ****     adc_stopConversion = 0u;
 283              		.loc 1 1243 0
 284              		.cfi_startproc
 285              		@ args = 0, pretend = 0, frame = 0
 286              		@ frame_needed = 0, uses_anonymous_args = 0
 287              	.LVL41:
 288 0000 F8B5     		push	{r3, r4, r5, r6, r7, lr}
 289              		.cfi_def_cfa_offset 24
 290              		.cfi_offset 3, -24
 291              		.cfi_offset 4, -20
 292              		.cfi_offset 5, -16
 293              		.cfi_offset 6, -12
 294              		.cfi_offset 7, -8
 295              		.cfi_offset 14, -4
1244:Generated_Source\PSoC5/adc.c **** 
 296              		.loc 1 1244 0
 297 0002 0022     		movs	r2, #0
 298 0004 304B     		ldr	r3, .L27
 299 0006 1A71     		strb	r2, [r3, #4]
1246:Generated_Source\PSoC5/adc.c ****     {
 300              		.loc 1 1246 0
 301 0008 0128     		cmp	r0, #1
 302 000a 5BD1     		bne	.L24
1249:Generated_Source\PSoC5/adc.c ****         adc_DEC_SHIFT1_REG  = adc_CFG1_DEC_SHIFT1;
 303              		.loc 1 1249 0
 304 000c 3822     		movs	r2, #56
 305 000e 2F4B     		ldr	r3, .L27+4
 306 0010 1A70     		strb	r2, [r3]
1250:Generated_Source\PSoC5/adc.c ****         adc_DEC_SHIFT2_REG  = adc_CFG1_DEC_SHIFT2;
 307              		.loc 1 1250 0
ARM GAS  C:\Users\hp\AppData\Local\Temp\ccOWzvx9.s 			page 37


 308 0012 0422     		movs	r2, #4
 309 0014 0233     		adds	r3, r3, #2
 310 0016 1A70     		strb	r2, [r3]
1251:Generated_Source\PSoC5/adc.c ****         adc_DEC_DR2_REG     = adc_CFG1_DEC_DR2;
 311              		.loc 1 1251 0
 312 0018 0722     		movs	r2, #7
 313 001a 0133     		adds	r3, r3, #1
 314 001c 1A70     		strb	r2, [r3]
1252:Generated_Source\PSoC5/adc.c ****         adc_DEC_DR2H_REG    = adc_CFG1_DEC_DR2H;
 315              		.loc 1 1252 0
 316 001e 0024     		movs	r4, #0
 317 0020 0133     		adds	r3, r3, #1
 318 0022 1C70     		strb	r4, [r3]
1253:Generated_Source\PSoC5/adc.c ****         adc_DEC_DR1_REG     = adc_CFG1_DEC_DR1;
 319              		.loc 1 1253 0
 320 0024 0133     		adds	r3, r3, #1
 321 0026 1C70     		strb	r4, [r3]
1254:Generated_Source\PSoC5/adc.c ****         adc_DEC_OCOR_REG    = adc_CFG1_DEC_OCOR;
 322              		.loc 1 1254 0
 323 0028 3522     		movs	r2, #53
 324 002a 0133     		adds	r3, r3, #1
 325 002c 1A70     		strb	r2, [r3]
1255:Generated_Source\PSoC5/adc.c ****         adc_DEC_OCORM_REG   = adc_CFG1_DEC_OCORM;
 326              		.loc 1 1255 0
 327 002e 0233     		adds	r3, r3, #2
 328 0030 1C70     		strb	r4, [r3]
1256:Generated_Source\PSoC5/adc.c ****         adc_DEC_OCORH_REG   = adc_CFG1_DEC_OCORH;
 329              		.loc 1 1256 0
 330 0032 0133     		adds	r3, r3, #1
 331 0034 1C70     		strb	r4, [r3]
1257:Generated_Source\PSoC5/adc.c ****         adc_DEC_COHER_REG   = adc_CFG1_DEC_COHER;
 332              		.loc 1 1257 0
 333 0036 0133     		adds	r3, r3, #1
 334 0038 1C70     		strb	r4, [r3]
1258:Generated_Source\PSoC5/adc.c **** 
 335              		.loc 1 1258 0
 336 003a 0125     		movs	r5, #1
 337 003c 0A33     		adds	r3, r3, #10
 338 003e 1D70     		strb	r5, [r3]
1260:Generated_Source\PSoC5/adc.c ****         adc_DSM_CR5_REG     = adc_CFG1_DSM_CR5;
 339              		.loc 1 1260 0
 340 0040 1422     		movs	r2, #20
 341 0042 03F52763 		add	r3, r3, #2672
 342 0046 1A70     		strb	r2, [r3]
1261:Generated_Source\PSoC5/adc.c ****         adc_DSM_CR6_REG     = adc_CFG1_DSM_CR6;
 343              		.loc 1 1261 0
 344 0048 0922     		movs	r2, #9
 345 004a 0133     		adds	r3, r3, #1
 346 004c 1A70     		strb	r2, [r3]
1262:Generated_Source\PSoC5/adc.c ****         adc_DSM_CR7_REG     = adc_CFG1_DSM_CR7;
 347              		.loc 1 1262 0
 348 004e 0A27     		movs	r7, #10
 349 0050 0133     		adds	r3, r3, #1
 350 0052 1F70     		strb	r7, [r3]
1263:Generated_Source\PSoC5/adc.c ****         adc_DSM_CR10_REG    = adc_CFG1_DSM_CR10;
 351              		.loc 1 1263 0
 352 0054 0133     		adds	r3, r3, #1
ARM GAS  C:\Users\hp\AppData\Local\Temp\ccOWzvx9.s 			page 38


 353 0056 1C70     		strb	r4, [r3]
1264:Generated_Source\PSoC5/adc.c ****         adc_DSM_CR11_REG    = adc_CFG1_DSM_CR11;
 354              		.loc 1 1264 0
 355 0058 1122     		movs	r2, #17
 356 005a 0333     		adds	r3, r3, #3
 357 005c 1A70     		strb	r2, [r3]
1265:Generated_Source\PSoC5/adc.c ****         adc_DSM_CR12_REG    = adc_CFG1_DSM_CR12;
 358              		.loc 1 1265 0
 359 005e 1222     		movs	r2, #18
 360 0060 0133     		adds	r3, r3, #1
 361 0062 1A70     		strb	r2, [r3]
1266:Generated_Source\PSoC5/adc.c ****         adc_DSM_CR14_REG    = adc_CFG1_DSM_CR14;
 362              		.loc 1 1266 0
 363 0064 0133     		adds	r3, r3, #1
 364 0066 1D70     		strb	r5, [r3]
1267:Generated_Source\PSoC5/adc.c ****         adc_DSM_CR15_REG    = adc_CFG1_DSM_CR15;
 365              		.loc 1 1267 0
 366 0068 0222     		movs	r2, #2
 367 006a 0233     		adds	r3, r3, #2
 368 006c 1A70     		strb	r2, [r3]
1268:Generated_Source\PSoC5/adc.c ****         adc_DSM_CR16_REG    = adc_CFG1_DSM_CR16;
 369              		.loc 1 1268 0
 370 006e 2222     		movs	r2, #34
 371 0070 0133     		adds	r3, r3, #1
 372 0072 1A70     		strb	r2, [r3]
1269:Generated_Source\PSoC5/adc.c ****         adc_DSM_CR17_REG    = adc_CFG1_DSM_CR17;
 373              		.loc 1 1269 0
 374 0074 2822     		movs	r2, #40
 375 0076 0133     		adds	r3, r3, #1
 376 0078 1A70     		strb	r2, [r3]
1270:Generated_Source\PSoC5/adc.c ****         /* Set DSM_REF0_REG by disabling and enabling the PRESS circuit */
 377              		.loc 1 1270 0
 378 007a EB22     		movs	r2, #235
 379 007c 0133     		adds	r3, r3, #1
 380 007e 1A70     		strb	r2, [r3]
1272:Generated_Source\PSoC5/adc.c ****         adc_DSM_REF2_REG    = adc_CFG1_DSM_REF2;
 381              		.loc 1 1272 0
 382 0080 4420     		movs	r0, #68
 383              	.LVL42:
 384 0082 FFF7FEFF 		bl	adc_SetDSMRef0Reg
 385              	.LVL43:
1273:Generated_Source\PSoC5/adc.c ****         adc_DSM_REF3_REG    = adc_CFG1_DSM_REF3;
 386              		.loc 1 1273 0
 387 0086 C022     		movs	r2, #192
 388 0088 114B     		ldr	r3, .L27+8
 389 008a 1A70     		strb	r2, [r3]
1274:Generated_Source\PSoC5/adc.c **** 
 390              		.loc 1 1274 0
 391 008c 0326     		movs	r6, #3
 392 008e 0133     		adds	r3, r3, #1
 393 0090 1E70     		strb	r6, [r3]
1276:Generated_Source\PSoC5/adc.c ****         adc_DSM_BUF1_REG    = adc_CFG1_DSM_BUF1;
 394              		.loc 1 1276 0
 395 0092 0522     		movs	r2, #5
 396 0094 0533     		adds	r3, r3, #5
 397 0096 1A70     		strb	r2, [r3]
1277:Generated_Source\PSoC5/adc.c ****         adc_DSM_BUF2_REG    = adc_CFG1_DSM_BUF2;
ARM GAS  C:\Users\hp\AppData\Local\Temp\ccOWzvx9.s 			page 39


 398              		.loc 1 1277 0
 399 0098 0133     		adds	r3, r3, #1
 400 009a 1D70     		strb	r5, [r3]
1278:Generated_Source\PSoC5/adc.c ****         adc_DSM_BUF3_REG    = adc_CFG1_DSM_BUF3;
 401              		.loc 1 1278 0
 402 009c 0133     		adds	r3, r3, #1
 403 009e 1C70     		strb	r4, [r3]
1279:Generated_Source\PSoC5/adc.c **** 
 404              		.loc 1 1279 0
 405 00a0 0133     		adds	r3, r3, #1
 406 00a2 1F70     		strb	r7, [r3]
1300:Generated_Source\PSoC5/adc.c **** 
 407              		.loc 1 1300 0
 408 00a4 4FF47A52 		mov	r2, #16000
 409 00a8 0A4B     		ldr	r3, .L27+12
 410 00aa 1A60     		str	r2, [r3]
1302:Generated_Source\PSoC5/adc.c **** 
 411              		.loc 1 1302 0
 412 00ac 2946     		mov	r1, r5
 413 00ae 2846     		mov	r0, r5
 414 00b0 FFF7FEFF 		bl	adc_Ext_CP_Clk_SetDividerRegister
 415              	.LVL44:
1306:Generated_Source\PSoC5/adc.c ****         #endif /* adc_DEFAULT_INTERNAL_CLK */
 416              		.loc 1 1306 0
 417 00b4 2946     		mov	r1, r5
 418 00b6 3046     		mov	r0, r6
 419 00b8 FFF7FEFF 		bl	adc_theACLK_SetDividerRegister
 420              	.LVL45:
1311:Generated_Source\PSoC5/adc.c ****         #endif   /* End adc_IRQ_REMOVE */
 421              		.loc 1 1311 0
 422 00bc 0649     		ldr	r1, .L27+16
 423 00be 1D20     		movs	r0, #29
 424 00c0 FFF7FEFF 		bl	CyIntSetVector
 425              	.LVL46:
 426              	.L24:
 427 00c4 F8BD     		pop	{r3, r4, r5, r6, r7, pc}
 428              	.L28:
 429 00c6 00BF     		.align	2
 430              	.L27:
 431 00c8 00000000 		.word	.LANCHOR0
 432 00cc 004E0040 		.word	1073761792
 433 00d0 94580040 		.word	1073764500
 434 00d4 00000000 		.word	adc_CountsPerVolt
 435 00d8 00000000 		.word	adc_ISR1
 436              		.cfi_endproc
 437              	.LFE19:
 438              		.size	adc_InitConfig, .-adc_InitConfig
 439              		.section	.text.adc_Init,"ax",%progbits
 440              		.align	2
 441              		.global	adc_Init
 442              		.thumb
 443              		.thumb_func
 444              		.type	adc_Init, %function
 445              	adc_Init:
 446              	.LFB0:
  92:Generated_Source\PSoC5/adc.c **** 
 447              		.loc 1 92 0
ARM GAS  C:\Users\hp\AppData\Local\Temp\ccOWzvx9.s 			page 40


 448              		.cfi_startproc
 449              		@ args = 0, pretend = 0, frame = 0
 450              		@ frame_needed = 0, uses_anonymous_args = 0
 451 0000 F0B5     		push	{r4, r5, r6, r7, lr}
 452              		.cfi_def_cfa_offset 20
 453              		.cfi_offset 4, -20
 454              		.cfi_offset 5, -16
 455              		.cfi_offset 6, -12
 456              		.cfi_offset 7, -8
 457              		.cfi_offset 14, -4
 458 0002 83B0     		sub	sp, sp, #12
 459              		.cfi_def_cfa_offset 32
  94:Generated_Source\PSoC5/adc.c ****     adc_convDone = 0u;
 460              		.loc 1 94 0
 461 0004 284D     		ldr	r5, .L31
 462 0006 0127     		movs	r7, #1
 463 0008 2F70     		strb	r7, [r5]
  95:Generated_Source\PSoC5/adc.c **** 
 464              		.loc 1 95 0
 465 000a 284E     		ldr	r6, .L31+4
 466 000c 0024     		movs	r4, #0
 467 000e 7471     		strb	r4, [r6, #5]
  97:Generated_Source\PSoC5/adc.c **** 
 468              		.loc 1 97 0
 469 0010 1020     		movs	r0, #16
 470 0012 FFF7FEFF 		bl	adc_Ext_CP_Clk_SetModeRegister
 471              	.LVL47:
 101:Generated_Source\PSoC5/adc.c ****     #endif /* adc_DEFAULT_INTERNAL_CLK */
 472              		.loc 1 101 0
 473 0016 1020     		movs	r0, #16
 474 0018 FFF7FEFF 		bl	adc_theACLK_SetModeRegister
 475              	.LVL48:
 106:Generated_Source\PSoC5/adc.c ****     #endif   /* End adc_IRQ_REMOVE */
 476              		.loc 1 106 0
 477 001c 0721     		movs	r1, #7
 478 001e 1D20     		movs	r0, #29
 479 0020 FFF7FEFF 		bl	CyIntSetPriority
 480              	.LVL49:
 110:Generated_Source\PSoC5/adc.c ****     adc_DSM_DEM1_REG    = adc_CFG1_DSM_DEM1;
 481              		.loc 1 110 0
 482 0024 0420     		movs	r0, #4
 483 0026 224B     		ldr	r3, .L31+8
 484 0028 1870     		strb	r0, [r3]
 111:Generated_Source\PSoC5/adc.c ****     adc_DSM_MISC_REG    = adc_CFG1_DSM_MISC;
 485              		.loc 1 111 0
 486 002a 0133     		adds	r3, r3, #1
 487 002c 1C70     		strb	r4, [r3]
 112:Generated_Source\PSoC5/adc.c ****     adc_DSM_CLK_REG    |= adc_CFG1_DSM_CLK;
 488              		.loc 1 112 0
 489 002e 0733     		adds	r3, r3, #7
 490 0030 1C70     		strb	r4, [r3]
 113:Generated_Source\PSoC5/adc.c ****     adc_DSM_REF1_REG    = adc_CFG1_DSM_REF1;
 491              		.loc 1 113 0
 492 0032 204A     		ldr	r2, .L31+12
 493 0034 1378     		ldrb	r3, [r2]	@ zero_extendqisi2
 494 0036 43F01803 		orr	r3, r3, #24
 495 003a 1370     		strb	r3, [r2]
ARM GAS  C:\Users\hp\AppData\Local\Temp\ccOWzvx9.s 			page 41


 114:Generated_Source\PSoC5/adc.c **** 
 496              		.loc 1 114 0
 497 003c 1E4B     		ldr	r3, .L31+16
 498 003e 1C70     		strb	r4, [r3]
 116:Generated_Source\PSoC5/adc.c ****     adc_DSM_OUT1_REG    = adc_CFG1_DSM_OUT1;
 499              		.loc 1 116 0
 500 0040 03F2F523 		addw	r3, r3, #757
 501 0044 1C70     		strb	r4, [r3]
 117:Generated_Source\PSoC5/adc.c **** 
 502              		.loc 1 117 0
 503 0046 0133     		adds	r3, r3, #1
 504 0048 1C70     		strb	r4, [r3]
 119:Generated_Source\PSoC5/adc.c ****     adc_DSM_CR1_REG     = adc_CFG1_DSM_CR1;
 505              		.loc 1 119 0
 506 004a 0A22     		movs	r2, #10
 507 004c A3F20933 		subw	r3, r3, #777
 508 0050 1A70     		strb	r2, [r3]
 120:Generated_Source\PSoC5/adc.c **** #if(adc_MI_ENABLE != 0u) /* Enable Modulator Input */
 509              		.loc 1 120 0
 510 0052 0133     		adds	r3, r3, #1
 511 0054 1C70     		strb	r4, [r3]
 124:Generated_Source\PSoC5/adc.c **** #endif /* adc_MI_ENABLE != 0u*/    
 512              		.loc 1 124 0
 513 0056 0233     		adds	r3, r3, #2
 514 0058 1C70     		strb	r4, [r3]
 126:Generated_Source\PSoC5/adc.c ****     adc_DSM_CR9_REG     = adc_CFG1_DSM_CR9;
 515              		.loc 1 126 0
 516 005a 1222     		movs	r2, #18
 517 005c 0533     		adds	r3, r3, #5
 518 005e 1A70     		strb	r2, [r3]
 127:Generated_Source\PSoC5/adc.c ****     adc_DSM_CR13_REG    = adc_CFG1_DSM_CR13;
 519              		.loc 1 127 0
 520 0060 1322     		movs	r2, #19
 521 0062 0133     		adds	r3, r3, #1
 522 0064 1A70     		strb	r2, [r3]
 128:Generated_Source\PSoC5/adc.c **** 
 523              		.loc 1 128 0
 524 0066 0433     		adds	r3, r3, #4
 525 0068 1C70     		strb	r4, [r3]
 130:Generated_Source\PSoC5/adc.c **** 
 526              		.loc 1 130 0
 527 006a 1422     		movs	r2, #20
 528 006c A3F68C23 		subw	r3, r3, #2700
 529 0070 1A70     		strb	r2, [r3]
 133:Generated_Source\PSoC5/adc.c ****                                       adc_CFG1_IDEAL_DEC_GAIN,
 530              		.loc 1 133 0
 531 0072 0097     		str	r7, [sp]
 532 0074 0F23     		movs	r3, #15
 533 0076 47F64862 		movw	r2, #32328
 534 007a 48F6B651 		movw	r1, #36278
 535 007e FFF7FEFF 		bl	adc_GainCompensation
 536              	.LVL50:
 161:Generated_Source\PSoC5/adc.c ****     CY_SET_REG16(adc_DEC_GCOR_16B_PTR, adc_gcor[adc_Config - 1u].gcor);
 537              		.loc 1 161 0
 538 0082 2B78     		ldrb	r3, [r5]	@ zero_extendqisi2
 539 0084 013B     		subs	r3, r3, #1
 540 0086 06EB8303 		add	r3, r6, r3, lsl #2
ARM GAS  C:\Users\hp\AppData\Local\Temp\ccOWzvx9.s 			page 42


 541 008a 9A78     		ldrb	r2, [r3, #2]	@ zero_extendqisi2
 542 008c 0B4B     		ldr	r3, .L31+20
 543 008e 1A70     		strb	r2, [r3]
 162:Generated_Source\PSoC5/adc.c **** 
 544              		.loc 1 162 0
 545 0090 2B78     		ldrb	r3, [r5]	@ zero_extendqisi2
 546 0092 013B     		subs	r3, r3, #1
 547 0094 36F82320 		ldrh	r2, [r6, r3, lsl #2]
 548 0098 094B     		ldr	r3, .L31+24
 549 009a 1A80     		strh	r2, [r3]	@ movhi
 165:Generated_Source\PSoC5/adc.c **** }
 550              		.loc 1 165 0
 551 009c 2878     		ldrb	r0, [r5]	@ zero_extendqisi2
 552 009e FFF7FEFF 		bl	adc_InitConfig
 553              	.LVL51:
 166:Generated_Source\PSoC5/adc.c **** 
 554              		.loc 1 166 0
 555 00a2 03B0     		add	sp, sp, #12
 556              		.cfi_def_cfa_offset 20
 557              		@ sp needed
 558 00a4 F0BD     		pop	{r4, r5, r6, r7, pc}
 559              	.L32:
 560 00a6 00BF     		.align	2
 561              	.L31:
 562 00a8 00000000 		.word	.LANCHOR1
 563 00ac 00000000 		.word	.LANCHOR0
 564 00b0 96580040 		.word	1073764502
 565 00b4 075B0040 		.word	1073765127
 566 00b8 93580040 		.word	1073764499
 567 00bc 0E4E0040 		.word	1073761806
 568 00c0 0C4E0040 		.word	1073761804
 569              		.cfi_endproc
 570              	.LFE0:
 571              		.size	adc_Init, .-adc_Init
 572              		.section	.text.adc_Enable,"ax",%progbits
 573              		.align	2
 574              		.global	adc_Enable
 575              		.thumb
 576              		.thumb_func
 577              		.type	adc_Enable, %function
 578              	adc_Enable:
 579              	.LFB1:
 185:Generated_Source\PSoC5/adc.c **** 	uint8 config;
 580              		.loc 1 185 0
 581              		.cfi_startproc
 582              		@ args = 0, pretend = 0, frame = 0
 583              		@ frame_needed = 0, uses_anonymous_args = 0
 584 0000 70B5     		push	{r4, r5, r6, lr}
 585              		.cfi_def_cfa_offset 16
 586              		.cfi_offset 4, -16
 587              		.cfi_offset 5, -12
 588              		.cfi_offset 6, -8
 589              		.cfi_offset 14, -4
 188:Generated_Source\PSoC5/adc.c **** 
 590              		.loc 1 188 0
 591 0002 FFF7FEFF 		bl	CyEnterCriticalSection
 592              	.LVL52:
ARM GAS  C:\Users\hp\AppData\Local\Temp\ccOWzvx9.s 			page 43


 593 0006 0646     		mov	r6, r0
 594              	.LVL53:
 191:Generated_Source\PSoC5/adc.c ****     
 595              		.loc 1 191 0
 596 0008 2A4B     		ldr	r3, .L35
 597 000a 1B78     		ldrb	r3, [r3]	@ zero_extendqisi2
 598              	.LVL54:
 194:Generated_Source\PSoC5/adc.c ****     adc_PWRMGR_DSM_REG |= adc_ACT_PWR_DSM_EN;
 599              		.loc 1 194 0
 600 000c 2A4B     		ldr	r3, .L35+4
 601 000e 1A78     		ldrb	r2, [r3]	@ zero_extendqisi2
 602 0010 42F00102 		orr	r2, r2, #1
 603 0014 1A70     		strb	r2, [r3]
 195:Generated_Source\PSoC5/adc.c **** 
 604              		.loc 1 195 0
 605 0016 1A78     		ldrb	r2, [r3]	@ zero_extendqisi2
 606 0018 42F01002 		orr	r2, r2, #16
 607 001c 1A70     		strb	r2, [r3]
 198:Generated_Source\PSoC5/adc.c ****     adc_STBY_PWRMGR_DSM_REG |= adc_STBY_PWR_DSM_EN;
 608              		.loc 1 198 0
 609 001e 1033     		adds	r3, r3, #16
 610 0020 1A78     		ldrb	r2, [r3]	@ zero_extendqisi2
 611 0022 42F00102 		orr	r2, r2, #1
 612 0026 1A70     		strb	r2, [r3]
 199:Generated_Source\PSoC5/adc.c **** 
 613              		.loc 1 199 0
 614 0028 1A78     		ldrb	r2, [r3]	@ zero_extendqisi2
 615 002a 42F01002 		orr	r2, r2, #16
 616 002e 1A70     		strb	r2, [r3]
 202:Generated_Source\PSoC5/adc.c ****     adc_RESET_CR5_REG |= adc_IGNORE_PRESA2;
 617              		.loc 1 202 0
 618 0030 224D     		ldr	r5, .L35+8
 619 0032 2B78     		ldrb	r3, [r5]	@ zero_extendqisi2
 620 0034 43F00203 		orr	r3, r3, #2
 621 0038 2B70     		strb	r3, [r5]
 203:Generated_Source\PSoC5/adc.c **** 
 622              		.loc 1 203 0
 623 003a 214C     		ldr	r4, .L35+12
 624 003c 2378     		ldrb	r3, [r4]	@ zero_extendqisi2
 625 003e 43F00203 		orr	r3, r3, #2
 626 0042 2370     		strb	r3, [r4]
 205:Generated_Source\PSoC5/adc.c **** 
 627              		.loc 1 205 0
 628 0044 1F4A     		ldr	r2, .L35+16
 629 0046 1378     		ldrb	r3, [r2]	@ zero_extendqisi2
 630 0048 43F00303 		orr	r3, r3, #3
 631 004c 1370     		strb	r3, [r2]
 271:Generated_Source\PSoC5/adc.c **** 
 632              		.loc 1 271 0
 633 004e 0320     		movs	r0, #3
 634 0050 FFF7FEFF 		bl	CyDelayUs
 635              	.LVL55:
 274:Generated_Source\PSoC5/adc.c ****     adc_RESET_CR5_REG &= (uint8)~adc_IGNORE_PRESA2;
 636              		.loc 1 274 0
 637 0054 2B78     		ldrb	r3, [r5]	@ zero_extendqisi2
 638 0056 03F0FD03 		and	r3, r3, #253
 639 005a 2B70     		strb	r3, [r5]
ARM GAS  C:\Users\hp\AppData\Local\Temp\ccOWzvx9.s 			page 44


 275:Generated_Source\PSoC5/adc.c **** 
 640              		.loc 1 275 0
 641 005c 2378     		ldrb	r3, [r4]	@ zero_extendqisi2
 642 005e 03F0FD03 		and	r3, r3, #253
 643 0062 2370     		strb	r3, [r4]
 278:Generated_Source\PSoC5/adc.c **** 
 644              		.loc 1 278 0
 645 0064 184A     		ldr	r2, .L35+20
 646 0066 1378     		ldrb	r3, [r2]	@ zero_extendqisi2
 647 0068 43F00603 		orr	r3, r3, #6
 648 006c 1370     		strb	r3, [r2]
 281:Generated_Source\PSoC5/adc.c **** 
 649              		.loc 1 281 0
 650 006e 7A22     		movs	r2, #122
 651 0070 164B     		ldr	r3, .L35+24
 652 0072 1A70     		strb	r2, [r3]
 285:Generated_Source\PSoC5/adc.c ****         adc_STBY_PWRMGR_CLK_REG |= adc_STBY_PWR_CLK_EN;
 653              		.loc 1 285 0
 654 0074 164A     		ldr	r2, .L35+28
 655 0076 1378     		ldrb	r3, [r2]	@ zero_extendqisi2
 656 0078 43F00103 		orr	r3, r3, #1
 657 007c 1370     		strb	r3, [r2]
 286:Generated_Source\PSoC5/adc.c ****     #endif /* adc_DEFAULT_INTERNAL_CLK */
 658              		.loc 1 286 0
 659 007e 1032     		adds	r2, r2, #16
 660 0080 1378     		ldrb	r3, [r2]	@ zero_extendqisi2
 661 0082 43F00103 		orr	r3, r3, #1
 662 0086 1370     		strb	r3, [r2]
 290:Generated_Source\PSoC5/adc.c ****     adc_STBY_PWRMGR_CHARGE_PUMP_CLK_REG |= adc_STBY_PWR_CHARGE_PUMP_CLK_EN;
 663              		.loc 1 290 0
 664 0088 0F3A     		subs	r2, r2, #15
 665 008a 1378     		ldrb	r3, [r2]	@ zero_extendqisi2
 666 008c 43F00103 		orr	r3, r3, #1
 667 0090 1370     		strb	r3, [r2]
 291:Generated_Source\PSoC5/adc.c **** 
 668              		.loc 1 291 0
 669 0092 1032     		adds	r2, r2, #16
 670 0094 1378     		ldrb	r3, [r2]	@ zero_extendqisi2
 671 0096 43F00103 		orr	r3, r3, #1
 672 009a 1370     		strb	r3, [r2]
 295:Generated_Source\PSoC5/adc.c ****         /* Enable interrupt */
 673              		.loc 1 295 0
 674 009c 4FF00053 		mov	r3, #536870912
 675 00a0 0C4A     		ldr	r2, .L35+32
 676 00a2 1360     		str	r3, [r2]
 297:Generated_Source\PSoC5/adc.c ****     #endif   /* End adc_IRQ_REMOVE */
 677              		.loc 1 297 0
 678 00a4 A2F5C072 		sub	r2, r2, #384
 679 00a8 1360     		str	r3, [r2]
 300:Generated_Source\PSoC5/adc.c **** 
 680              		.loc 1 300 0
 681 00aa 3046     		mov	r0, r6
 682 00ac FFF7FEFF 		bl	CyExitCriticalSection
 683              	.LVL56:
 684 00b0 70BD     		pop	{r4, r5, r6, pc}
 685              	.LVL57:
 686              	.L36:
ARM GAS  C:\Users\hp\AppData\Local\Temp\ccOWzvx9.s 			page 45


 687 00b2 00BF     		.align	2
 688              	.L35:
 689 00b4 00000000 		.word	.LANCHOR1
 690 00b8 AA430040 		.word	1073759146
 691 00bc F8460040 		.word	1073759992
 692 00c0 F9460040 		.word	1073759993
 693 00c4 91580040 		.word	1073764497
 694 00c8 77580040 		.word	1073764471
 695 00cc 82580040 		.word	1073764482
 696 00d0 A1430040 		.word	1073759137
 697 00d4 80E200E0 		.word	-536812928
 698              		.cfi_endproc
 699              	.LFE1:
 700              		.size	adc_Enable, .-adc_Enable
 701              		.section	.text.adc_Start,"ax",%progbits
 702              		.align	2
 703              		.global	adc_Start
 704              		.thumb
 705              		.thumb_func
 706              		.type	adc_Start, %function
 707              	adc_Start:
 708              	.LFB2:
 330:Generated_Source\PSoC5/adc.c ****     if(adc_initVar == 0u)
 709              		.loc 1 330 0
 710              		.cfi_startproc
 711              		@ args = 0, pretend = 0, frame = 0
 712              		@ frame_needed = 0, uses_anonymous_args = 0
 713 0000 08B5     		push	{r3, lr}
 714              		.cfi_def_cfa_offset 8
 715              		.cfi_offset 3, -8
 716              		.cfi_offset 14, -4
 331:Generated_Source\PSoC5/adc.c ****     {
 717              		.loc 1 331 0
 718 0002 084B     		ldr	r3, .L41
 719 0004 9B79     		ldrb	r3, [r3, #6]	@ zero_extendqisi2
 720 0006 4BB9     		cbnz	r3, .L38
 333:Generated_Source\PSoC5/adc.c ****         {
 721              		.loc 1 333 0
 722 0008 064B     		ldr	r3, .L41
 723 000a DB79     		ldrb	r3, [r3, #7]	@ zero_extendqisi2
 724 000c 13F0FF0F 		tst	r3, #255
 725 0010 01D1     		bne	.L39
 335:Generated_Source\PSoC5/adc.c ****         }
 726              		.loc 1 335 0
 727 0012 FFF7FEFF 		bl	adc_Init
 728              	.LVL58:
 729              	.L39:
 337:Generated_Source\PSoC5/adc.c ****     }
 730              		.loc 1 337 0
 731 0016 0122     		movs	r2, #1
 732 0018 024B     		ldr	r3, .L41
 733 001a 9A71     		strb	r2, [r3, #6]
 734              	.L38:
 341:Generated_Source\PSoC5/adc.c **** }
 735              		.loc 1 341 0
 736 001c FFF7FEFF 		bl	adc_Enable
 737              	.LVL59:
ARM GAS  C:\Users\hp\AppData\Local\Temp\ccOWzvx9.s 			page 46


 738 0020 08BD     		pop	{r3, pc}
 739              	.L42:
 740 0022 00BF     		.align	2
 741              	.L41:
 742 0024 00000000 		.word	.LANCHOR0
 743              		.cfi_endproc
 744              	.LFE2:
 745              		.size	adc_Start, .-adc_Start
 746              		.section	.text.adc_Stop,"ax",%progbits
 747              		.align	2
 748              		.global	adc_Stop
 749              		.thumb
 750              		.thumb_func
 751              		.type	adc_Stop, %function
 752              	adc_Stop:
 753              	.LFB3:
 363:Generated_Source\PSoC5/adc.c ****     uint8 enableInterrupts;
 754              		.loc 1 363 0
 755              		.cfi_startproc
 756              		@ args = 0, pretend = 0, frame = 0
 757              		@ frame_needed = 0, uses_anonymous_args = 0
 758 0000 70B5     		push	{r4, r5, r6, lr}
 759              		.cfi_def_cfa_offset 16
 760              		.cfi_offset 4, -16
 761              		.cfi_offset 5, -12
 762              		.cfi_offset 6, -8
 763              		.cfi_offset 14, -4
 365:Generated_Source\PSoC5/adc.c **** 
 764              		.loc 1 365 0
 765 0002 FFF7FEFF 		bl	CyEnterCriticalSection
 766              	.LVL60:
 767 0006 0646     		mov	r6, r0
 768              	.LVL61:
 368:Generated_Source\PSoC5/adc.c ****     adc_DEC_SR_REG |=  adc_DEC_INTR_CLEAR;
 769              		.loc 1 368 0
 770 0008 314A     		ldr	r2, .L45
 771 000a 1378     		ldrb	r3, [r2]	@ zero_extendqisi2
 772 000c 03F0FE03 		and	r3, r3, #254
 773 0010 1370     		strb	r3, [r2]
 369:Generated_Source\PSoC5/adc.c **** 
 774              		.loc 1 369 0
 775 0012 0132     		adds	r2, r2, #1
 776 0014 1378     		ldrb	r3, [r2]	@ zero_extendqisi2
 777 0016 43F00403 		orr	r3, r3, #4
 778 001a 1370     		strb	r3, [r2]
 373:Generated_Source\PSoC5/adc.c ****     adc_RESET_CR5_REG |= adc_IGNORE_PRESA2;
 779              		.loc 1 373 0
 780 001c 2D4D     		ldr	r5, .L45+4
 781 001e 2B78     		ldrb	r3, [r5]	@ zero_extendqisi2
 782 0020 43F00203 		orr	r3, r3, #2
 783 0024 2B70     		strb	r3, [r5]
 374:Generated_Source\PSoC5/adc.c **** 
 784              		.loc 1 374 0
 785 0026 2C4C     		ldr	r4, .L45+8
 786 0028 2378     		ldrb	r3, [r4]	@ zero_extendqisi2
 787 002a 43F00203 		orr	r3, r3, #2
 788 002e 2370     		strb	r3, [r4]
ARM GAS  C:\Users\hp\AppData\Local\Temp\ccOWzvx9.s 			page 47


 376:Generated_Source\PSoC5/adc.c ****     adc_DSM_REF0_REG &= (uint8)~adc_DSM_EN_BUF_VREF_INN;
 789              		.loc 1 376 0
 790 0030 02F52962 		add	r2, r2, #2704
 791 0034 1378     		ldrb	r3, [r2]	@ zero_extendqisi2
 792 0036 03F0FC03 		and	r3, r3, #252
 793 003a 1370     		strb	r3, [r2]
 377:Generated_Source\PSoC5/adc.c **** 
 794              		.loc 1 377 0
 795 003c 0132     		adds	r2, r2, #1
 796 003e 1378     		ldrb	r3, [r2]	@ zero_extendqisi2
 797 0040 03F0F703 		and	r3, r3, #247
 798 0044 1370     		strb	r3, [r2]
 380:Generated_Source\PSoC5/adc.c **** 
 799              		.loc 1 380 0
 800 0046 0320     		movs	r0, #3
 801 0048 FFF7FEFF 		bl	CyDelayUs
 802              	.LVL62:
 383:Generated_Source\PSoC5/adc.c ****     adc_RESET_CR5_REG &= (uint8)~adc_IGNORE_PRESA2;
 803              		.loc 1 383 0
 804 004c 2B78     		ldrb	r3, [r5]	@ zero_extendqisi2
 805 004e 03F0FD03 		and	r3, r3, #253
 806 0052 2B70     		strb	r3, [r5]
 384:Generated_Source\PSoC5/adc.c **** 
 807              		.loc 1 384 0
 808 0054 2378     		ldrb	r3, [r4]	@ zero_extendqisi2
 809 0056 03F0FD03 		and	r3, r3, #253
 810 005a 2370     		strb	r3, [r4]
 387:Generated_Source\PSoC5/adc.c **** 
 811              		.loc 1 387 0
 812 005c 1F4B     		ldr	r3, .L45+12
 813 005e 1A78     		ldrb	r2, [r3]	@ zero_extendqisi2
 814 0060 02F0EF02 		and	r2, r2, #239
 815 0064 1A70     		strb	r2, [r3]
 390:Generated_Source\PSoC5/adc.c **** 
 816              		.loc 1 390 0
 817 0066 1A78     		ldrb	r2, [r3]	@ zero_extendqisi2
 818 0068 02F0FE02 		and	r2, r2, #254
 819 006c 1A70     		strb	r2, [r3]
 393:Generated_Source\PSoC5/adc.c ****     adc_STBY_PWRMGR_DSM_REG &= (uint8)~adc_STBY_PWR_DSM_EN;
 820              		.loc 1 393 0
 821 006e 1033     		adds	r3, r3, #16
 822 0070 1A78     		ldrb	r2, [r3]	@ zero_extendqisi2
 823 0072 02F0FE02 		and	r2, r2, #254
 824 0076 1A70     		strb	r2, [r3]
 394:Generated_Source\PSoC5/adc.c **** 
 825              		.loc 1 394 0
 826 0078 1A78     		ldrb	r2, [r3]	@ zero_extendqisi2
 827 007a 02F0EF02 		and	r2, r2, #239
 828 007e 1A70     		strb	r2, [r3]
 397:Generated_Source\PSoC5/adc.c **** 
 829              		.loc 1 397 0
 830 0080 174A     		ldr	r2, .L45+16
 831 0082 1378     		ldrb	r3, [r2]	@ zero_extendqisi2
 832 0084 03F0F903 		and	r3, r3, #249
 833 0088 1370     		strb	r3, [r2]
 401:Generated_Source\PSoC5/adc.c ****         adc_STBY_PWRMGR_CLK_REG &= (uint8)~adc_STBY_PWR_CLK_EN;
 834              		.loc 1 401 0
ARM GAS  C:\Users\hp\AppData\Local\Temp\ccOWzvx9.s 			page 48


 835 008a A2F5A652 		sub	r2, r2, #5312
 836 008e 163A     		subs	r2, r2, #22
 837 0090 1378     		ldrb	r3, [r2]	@ zero_extendqisi2
 838 0092 03F0FE03 		and	r3, r3, #254
 839 0096 1370     		strb	r3, [r2]
 402:Generated_Source\PSoC5/adc.c ****     #endif /* adc_DEFAULT_INTERNAL_CLK */
 840              		.loc 1 402 0
 841 0098 1032     		adds	r2, r2, #16
 842 009a 1378     		ldrb	r3, [r2]	@ zero_extendqisi2
 843 009c 03F0FE03 		and	r3, r3, #254
 844 00a0 1370     		strb	r3, [r2]
 406:Generated_Source\PSoC5/adc.c ****     /* Disable power to charge pump clock */
 845              		.loc 1 406 0
 846 00a2 02F5A652 		add	r2, r2, #5312
 847 00a6 1132     		adds	r2, r2, #17
 848 00a8 1378     		ldrb	r3, [r2]	@ zero_extendqisi2
 849 00aa 03F0F703 		and	r3, r3, #247
 850 00ae 1370     		strb	r3, [r2]
 408:Generated_Source\PSoC5/adc.c ****     adc_STBY_PWRMGR_CHARGE_PUMP_CLK_REG &= (uint8)~adc_STBY_PWR_CHARGE_PUMP_CLK_EN;
 851              		.loc 1 408 0
 852 00b0 A2F5A752 		sub	r2, r2, #5344
 853 00b4 1378     		ldrb	r3, [r2]	@ zero_extendqisi2
 854 00b6 03F0FE03 		and	r3, r3, #254
 855 00ba 1370     		strb	r3, [r2]
 409:Generated_Source\PSoC5/adc.c ****     
 856              		.loc 1 409 0
 857 00bc 1032     		adds	r2, r2, #16
 858 00be 1378     		ldrb	r3, [r2]	@ zero_extendqisi2
 859 00c0 03F0FE03 		and	r3, r3, #254
 860 00c4 1370     		strb	r3, [r2]
 411:Generated_Source\PSoC5/adc.c **** }
 861              		.loc 1 411 0
 862 00c6 3046     		mov	r0, r6
 863 00c8 FFF7FEFF 		bl	CyExitCriticalSection
 864              	.LVL63:
 865 00cc 70BD     		pop	{r4, r5, r6, pc}
 866              	.LVL64:
 867              	.L46:
 868 00ce 00BF     		.align	2
 869              	.L45:
 870 00d0 004E0040 		.word	1073761792
 871 00d4 F8460040 		.word	1073759992
 872 00d8 F9460040 		.word	1073759993
 873 00dc AA430040 		.word	1073759146
 874 00e0 77580040 		.word	1073764471
 875              		.cfi_endproc
 876              	.LFE3:
 877              		.size	adc_Stop, .-adc_Stop
 878              		.section	.text.adc_SetBufferGain,"ax",%progbits
 879              		.align	2
 880              		.global	adc_SetBufferGain
 881              		.thumb
 882              		.thumb_func
 883              		.type	adc_SetBufferGain, %function
 884              	adc_SetBufferGain:
 885              	.LFB4:
 430:Generated_Source\PSoC5/adc.c ****     uint8 tmpReg;
ARM GAS  C:\Users\hp\AppData\Local\Temp\ccOWzvx9.s 			page 49


 886              		.loc 1 430 0
 887              		.cfi_startproc
 888              		@ args = 0, pretend = 0, frame = 0
 889              		@ frame_needed = 0, uses_anonymous_args = 0
 890              		@ link register save eliminated.
 891              	.LVL65:
 432:Generated_Source\PSoC5/adc.c ****     tmpReg |= (uint8)(gain << adc_DSM_GAIN_SHIFT) & adc_DSM_GAIN_MASK;
 892              		.loc 1 432 0
 893 0000 044A     		ldr	r2, .L48
 894 0002 1378     		ldrb	r3, [r2]	@ zero_extendqisi2
 895 0004 03F0F303 		and	r3, r3, #243
 896              	.LVL66:
 433:Generated_Source\PSoC5/adc.c ****     adc_DSM_BUF1_REG = tmpReg;
 897              		.loc 1 433 0
 898 0008 8000     		lsls	r0, r0, #2
 899              	.LVL67:
 900 000a 00F00C00 		and	r0, r0, #12
 901 000e 1843     		orrs	r0, r0, r3
 902              	.LVL68:
 434:Generated_Source\PSoC5/adc.c **** }
 903              		.loc 1 434 0
 904 0010 1070     		strb	r0, [r2]
 905 0012 7047     		bx	lr
 906              	.L49:
 907              		.align	2
 908              	.L48:
 909 0014 9B580040 		.word	1073764507
 910              		.cfi_endproc
 911              	.LFE4:
 912              		.size	adc_SetBufferGain, .-adc_SetBufferGain
 913              		.section	.text.adc_SetCoherency,"ax",%progbits
 914              		.align	2
 915              		.global	adc_SetCoherency
 916              		.thumb
 917              		.thumb_func
 918              		.type	adc_SetCoherency, %function
 919              	adc_SetCoherency:
 920              	.LFB5:
 466:Generated_Source\PSoC5/adc.c ****     uint8 tmpReg;
 921              		.loc 1 466 0
 922              		.cfi_startproc
 923              		@ args = 0, pretend = 0, frame = 0
 924              		@ frame_needed = 0, uses_anonymous_args = 0
 925              		@ link register save eliminated.
 926              	.LVL69:
 469:Generated_Source\PSoC5/adc.c ****     tmpReg |= coherency & adc_DEC_SAMP_KEY_MASK;
 927              		.loc 1 469 0
 928 0000 044A     		ldr	r2, .L51
 929 0002 1378     		ldrb	r3, [r2]	@ zero_extendqisi2
 930 0004 03F0FC03 		and	r3, r3, #252
 931              	.LVL70:
 470:Generated_Source\PSoC5/adc.c ****     adc_DEC_COHER_REG = tmpReg;
 932              		.loc 1 470 0
 933 0008 00F00300 		and	r0, r0, #3
 934              	.LVL71:
 935 000c 1843     		orrs	r0, r0, r3
 936              	.LVL72:
ARM GAS  C:\Users\hp\AppData\Local\Temp\ccOWzvx9.s 			page 50


 471:Generated_Source\PSoC5/adc.c **** }
 937              		.loc 1 471 0
 938 000e 1070     		strb	r0, [r2]
 939 0010 7047     		bx	lr
 940              	.L52:
 941 0012 00BF     		.align	2
 942              	.L51:
 943 0014 144E0040 		.word	1073761812
 944              		.cfi_endproc
 945              	.LFE5:
 946              		.size	adc_SetCoherency, .-adc_SetCoherency
 947              		.global	__aeabi_ui2f
 948              		.global	__aeabi_fmul
 949              		.global	__aeabi_f2d
 950              		.global	__aeabi_dcmpgt
 951              		.global	__aeabi_f2uiz
 952              		.section	.text.adc_SetGCOR,"ax",%progbits
 953              		.align	2
 954              		.global	adc_SetGCOR
 955              		.thumb
 956              		.thumb_func
 957              		.type	adc_SetGCOR, %function
 958              	adc_SetGCOR:
 959              	.LFB6:
 506:Generated_Source\PSoC5/adc.c ****     uint16 tmpReg;
 960              		.loc 1 506 0
 961              		.cfi_startproc
 962              		@ args = 0, pretend = 0, frame = 0
 963              		@ frame_needed = 0, uses_anonymous_args = 0
 964              	.LVL73:
 965 0000 10B5     		push	{r4, lr}
 966              		.cfi_def_cfa_offset 8
 967              		.cfi_offset 4, -8
 968              		.cfi_offset 14, -4
 969 0002 0446     		mov	r4, r0
 511:Generated_Source\PSoC5/adc.c ****     tmpValue = ((float32)tmpReg / (float32)adc_IDEAL_GAIN_CONST);
 970              		.loc 1 511 0
 971 0004 184B     		ldr	r3, .L57+8
 972 0006 1B78     		ldrb	r3, [r3]	@ zero_extendqisi2
 973 0008 013B     		subs	r3, r3, #1
 974              	.LVL74:
 512:Generated_Source\PSoC5/adc.c ****     tmpValue = tmpValue * gainAdjust;
 975              		.loc 1 512 0
 976 000a 184A     		ldr	r2, .L57+12
 977 000c 32F82300 		ldrh	r0, [r2, r3, lsl #2]
 978              	.LVL75:
 979 0010 FFF7FEFF 		bl	__aeabi_ui2f
 980              	.LVL76:
 981 0014 4FF06051 		mov	r1, #939524096
 982 0018 FFF7FEFF 		bl	__aeabi_fmul
 983              	.LVL77:
 513:Generated_Source\PSoC5/adc.c **** 
 984              		.loc 1 513 0
 985 001c 2146     		mov	r1, r4
 986 001e FFF7FEFF 		bl	__aeabi_fmul
 987              	.LVL78:
 988 0022 0446     		mov	r4, r0
ARM GAS  C:\Users\hp\AppData\Local\Temp\ccOWzvx9.s 			page 51


 989              	.LVL79:
 515:Generated_Source\PSoC5/adc.c ****     {
 990              		.loc 1 515 0
 991 0024 FFF7FEFF 		bl	__aeabi_f2d
 992              	.LVL80:
 993 0028 0DA3     		adr	r3, .L57
 994 002a D3E90023 		ldrd	r2, [r3]
 995 002e FFF7FEFF 		bl	__aeabi_dcmpgt
 996              	.LVL81:
 997 0032 88B9     		cbnz	r0, .L55
 521:Generated_Source\PSoC5/adc.c **** 		tmpReg = (uint16)tmpValue;
 998              		.loc 1 521 0
 999 0034 4FF08E41 		mov	r1, #1191182336
 1000 0038 2046     		mov	r0, r4
 1001 003a FFF7FEFF 		bl	__aeabi_fmul
 1002              	.LVL82:
 522:Generated_Source\PSoC5/adc.c ****         CY_SET_REG16(adc_DEC_GCOR_16B_PTR, tmpReg);
 1003              		.loc 1 522 0
 1004 003e FFF7FEFF 		bl	__aeabi_f2uiz
 1005              	.LVL83:
 1006 0042 80B2     		uxth	r0, r0
 1007              	.LVL84:
 523:Generated_Source\PSoC5/adc.c ****         /* Update gain array to be used by SelectConfiguration() API */
 1008              		.loc 1 523 0
 1009 0044 0A4B     		ldr	r3, .L57+16
 1010 0046 1880     		strh	r0, [r3]	@ movhi
 525:Generated_Source\PSoC5/adc.c **** 
 1011              		.loc 1 525 0
 1012 0048 074B     		ldr	r3, .L57+8
 1013 004a 1B78     		ldrb	r3, [r3]	@ zero_extendqisi2
 1014 004c 013B     		subs	r3, r3, #1
 1015 004e 074A     		ldr	r2, .L57+12
 1016 0050 22F82300 		strh	r0, [r2, r3, lsl #2]	@ movhi
 1017              	.LVL85:
 527:Generated_Source\PSoC5/adc.c **** 
 1018              		.loc 1 527 0
 1019 0054 0020     		movs	r0, #0
 1020              	.LVL86:
 1021 0056 10BD     		pop	{r4, pc}
 1022              	.LVL87:
 1023              	.L55:
 517:Generated_Source\PSoC5/adc.c ****     }
 1024              		.loc 1 517 0
 1025 0058 0120     		movs	r0, #1
 1026              	.LVL88:
 531:Generated_Source\PSoC5/adc.c **** 
 1027              		.loc 1 531 0
 1028 005a 10BD     		pop	{r4, pc}
 1029              	.LVL89:
 1030              	.L58:
 1031 005c AFF30080 		.align	3
 1032              	.L57:
 1033 0060 8F537424 		.word	611603343
 1034 0064 97FFFF3F 		.word	1073741719
 1035 0068 00000000 		.word	.LANCHOR1
 1036 006c 00000000 		.word	.LANCHOR0
 1037 0070 0C4E0040 		.word	1073761804
ARM GAS  C:\Users\hp\AppData\Local\Temp\ccOWzvx9.s 			page 52


 1038              		.cfi_endproc
 1039              	.LFE6:
 1040              		.size	adc_SetGCOR, .-adc_SetGCOR
 1041              		.section	.text.adc_ReadGCOR,"ax",%progbits
 1042              		.align	2
 1043              		.global	adc_ReadGCOR
 1044              		.thumb
 1045              		.thumb_func
 1046              		.type	adc_ReadGCOR, %function
 1047              	adc_ReadGCOR:
 1048              	.LFB7:
 553:Generated_Source\PSoC5/adc.c ****     uint8 gValue;
 1049              		.loc 1 553 0
 1050              		.cfi_startproc
 1051              		@ args = 0, pretend = 0, frame = 0
 1052              		@ frame_needed = 0, uses_anonymous_args = 0
 1053              		@ link register save eliminated.
 557:Generated_Source\PSoC5/adc.c ****     gcorValue = CY_GET_REG16(adc_DEC_GCOR_16B_PTR);
 1054              		.loc 1 557 0
 1055 0000 064B     		ldr	r3, .L61
 1056 0002 1B78     		ldrb	r3, [r3]	@ zero_extendqisi2
 1057 0004 DBB2     		uxtb	r3, r3
 1058              	.LVL90:
 558:Generated_Source\PSoC5/adc.c **** 
 1059              		.loc 1 558 0
 1060 0006 064A     		ldr	r2, .L61+4
 1061 0008 1088     		ldrh	r0, [r2]
 1062 000a 80B2     		uxth	r0, r0
 1063              	.LVL91:
 560:Generated_Source\PSoC5/adc.c ****     {
 1064              		.loc 1 560 0
 1065 000c 0E2B     		cmp	r3, #14
 1066 000e 03D8     		bhi	.L60
 562:Generated_Source\PSoC5/adc.c ****     }
 1067              		.loc 1 562 0
 1068 0010 C3F10F03 		rsb	r3, r3, #15
 1069              	.LVL92:
 1070 0014 9840     		lsls	r0, r0, r3
 1071              	.LVL93:
 1072 0016 80B2     		uxth	r0, r0
 1073              	.LVL94:
 1074              	.L60:
 566:Generated_Source\PSoC5/adc.c **** 
 1075              		.loc 1 566 0
 1076 0018 7047     		bx	lr
 1077              	.L62:
 1078 001a 00BF     		.align	2
 1079              	.L61:
 1080 001c 0E4E0040 		.word	1073761806
 1081 0020 0C4E0040 		.word	1073761804
 1082              		.cfi_endproc
 1083              	.LFE7:
 1084              		.size	adc_ReadGCOR, .-adc_ReadGCOR
 1085              		.section	.text.adc_StartConvert,"ax",%progbits
 1086              		.align	2
 1087              		.global	adc_StartConvert
 1088              		.thumb
ARM GAS  C:\Users\hp\AppData\Local\Temp\ccOWzvx9.s 			page 53


 1089              		.thumb_func
 1090              		.type	adc_StartConvert, %function
 1091              	adc_StartConvert:
 1092              	.LFB8:
 587:Generated_Source\PSoC5/adc.c ****     /* Start the conversion */
 1093              		.loc 1 587 0
 1094              		.cfi_startproc
 1095              		@ args = 0, pretend = 0, frame = 0
 1096              		@ frame_needed = 0, uses_anonymous_args = 0
 1097              		@ link register save eliminated.
 589:Generated_Source\PSoC5/adc.c **** }
 1098              		.loc 1 589 0
 1099 0000 024A     		ldr	r2, .L64
 1100 0002 1378     		ldrb	r3, [r2]	@ zero_extendqisi2
 1101 0004 43F00103 		orr	r3, r3, #1
 1102 0008 1370     		strb	r3, [r2]
 1103 000a 7047     		bx	lr
 1104              	.L65:
 1105              		.align	2
 1106              	.L64:
 1107 000c 004E0040 		.word	1073761792
 1108              		.cfi_endproc
 1109              	.LFE8:
 1110              		.size	adc_StartConvert, .-adc_StartConvert
 1111              		.section	.text.adc_StopConvert,"ax",%progbits
 1112              		.align	2
 1113              		.global	adc_StopConvert
 1114              		.thumb
 1115              		.thumb_func
 1116              		.type	adc_StopConvert, %function
 1117              	adc_StopConvert:
 1118              	.LFB9:
 610:Generated_Source\PSoC5/adc.c ****     /* Stop all conversions */
 1119              		.loc 1 610 0
 1120              		.cfi_startproc
 1121              		@ args = 0, pretend = 0, frame = 0
 1122              		@ frame_needed = 0, uses_anonymous_args = 0
 1123              		@ link register save eliminated.
 612:Generated_Source\PSoC5/adc.c **** }
 1124              		.loc 1 612 0
 1125 0000 024A     		ldr	r2, .L67
 1126 0002 1378     		ldrb	r3, [r2]	@ zero_extendqisi2
 1127 0004 03F0FE03 		and	r3, r3, #254
 1128 0008 1370     		strb	r3, [r2]
 1129 000a 7047     		bx	lr
 1130              	.L68:
 1131              		.align	2
 1132              	.L67:
 1133 000c 004E0040 		.word	1073761792
 1134              		.cfi_endproc
 1135              	.LFE9:
 1136              		.size	adc_StopConvert, .-adc_StopConvert
 1137              		.section	.text.adc_IsEndConversion,"ax",%progbits
 1138              		.align	2
 1139              		.global	adc_IsEndConversion
 1140              		.thumb
 1141              		.thumb_func
ARM GAS  C:\Users\hp\AppData\Local\Temp\ccOWzvx9.s 			page 54


 1142              		.type	adc_IsEndConversion, %function
 1143              	adc_IsEndConversion:
 1144              	.LFB10:
 645:Generated_Source\PSoC5/adc.c ****     uint8 status;
 1145              		.loc 1 645 0
 1146              		.cfi_startproc
 1147              		@ args = 0, pretend = 0, frame = 0
 1148              		@ frame_needed = 0, uses_anonymous_args = 0
 1149              		@ link register save eliminated.
 1150              	.LVL95:
 1151              	.L73:
 653:Generated_Source\PSoC5/adc.c ****         {
 1152              		.loc 1 653 0
 1153 0000 094B     		ldr	r3, .L74
 1154 0002 1B79     		ldrb	r3, [r3, #4]	@ zero_extendqisi2
 1155 0004 13F0FF0F 		tst	r3, #255
 1156 0008 03D0     		beq	.L70
 655:Generated_Source\PSoC5/adc.c ****         }
 1157              		.loc 1 655 0
 1158 000a 074B     		ldr	r3, .L74
 1159 000c 5B79     		ldrb	r3, [r3, #5]	@ zero_extendqisi2
 1160 000e DBB2     		uxtb	r3, r3
 1161              	.LVL96:
 1162 0010 03E0     		b	.L71
 1163              	.LVL97:
 1164              	.L70:
 659:Generated_Source\PSoC5/adc.c ****         }
 1165              		.loc 1 659 0
 1166 0012 064B     		ldr	r3, .L74+4
 1167 0014 1B78     		ldrb	r3, [r3]	@ zero_extendqisi2
 1168 0016 03F00103 		and	r3, r3, #1
 1169              	.LVL98:
 1170              	.L71:
 661:Generated_Source\PSoC5/adc.c **** 
 1171              		.loc 1 661 0
 1172 001a 012B     		cmp	r3, #1
 1173 001c 01D0     		beq	.L72
 661:Generated_Source\PSoC5/adc.c **** 
 1174              		.loc 1 661 0 is_stmt 0 discriminator 1
 1175 001e 0028     		cmp	r0, #0
 1176 0020 EED0     		beq	.L73
 1177              	.L72:
 664:Generated_Source\PSoC5/adc.c **** 
 1178              		.loc 1 664 0 is_stmt 1
 1179 0022 1846     		mov	r0, r3
 1180              	.LVL99:
 1181 0024 7047     		bx	lr
 1182              	.L75:
 1183 0026 00BF     		.align	2
 1184              	.L74:
 1185 0028 00000000 		.word	.LANCHOR0
 1186 002c 014E0040 		.word	1073761793
 1187              		.cfi_endproc
 1188              	.LFE10:
 1189              		.size	adc_IsEndConversion, .-adc_IsEndConversion
 1190              		.section	.text.adc_GetResult8,"ax",%progbits
 1191              		.align	2
ARM GAS  C:\Users\hp\AppData\Local\Temp\ccOWzvx9.s 			page 55


 1192              		.global	adc_GetResult8
 1193              		.thumb
 1194              		.thumb_func
 1195              		.type	adc_GetResult8, %function
 1196              	adc_GetResult8:
 1197              	.LFB11:
 692:Generated_Source\PSoC5/adc.c ****     int8 result;
 1198              		.loc 1 692 0
 1199              		.cfi_startproc
 1200              		@ args = 0, pretend = 0, frame = 0
 1201              		@ frame_needed = 0, uses_anonymous_args = 0
 1202              		@ link register save eliminated.
 697:Generated_Source\PSoC5/adc.c **** 
 1203              		.loc 1 697 0
 1204 0000 0C4B     		ldr	r3, .L80
 1205 0002 1B78     		ldrb	r3, [r3]	@ zero_extendqisi2
 1206 0004 03F00303 		and	r3, r3, #3
 1207              	.LVL100:
 699:Generated_Source\PSoC5/adc.c **** 
 1208              		.loc 1 699 0
 1209 0008 0B4A     		ldr	r2, .L80+4
 1210 000a 1078     		ldrb	r0, [r2]	@ zero_extendqisi2
 1211 000c 40B2     		sxtb	r0, r0
 1212              	.LVL101:
 701:Generated_Source\PSoC5/adc.c ****     {   /* Dummy read of the middle byte to unlock the coherency */
 1213              		.loc 1 701 0
 1214 000e 022B     		cmp	r3, #2
 1215 0010 02D1     		bne	.L77
 703:Generated_Source\PSoC5/adc.c ****     }
 1216              		.loc 1 703 0
 1217 0012 0A4B     		ldr	r3, .L80+8
 1218              	.LVL102:
 1219 0014 1B78     		ldrb	r3, [r3]	@ zero_extendqisi2
 1220 0016 03E0     		b	.L78
 1221              	.LVL103:
 1222              	.L77:
 705:Generated_Source\PSoC5/adc.c ****     {   /* Dummy read of the MSB byte to unlock the coherency */
 1223              		.loc 1 705 0
 1224 0018 032B     		cmp	r3, #3
 1225 001a 01D1     		bne	.L78
 707:Generated_Source\PSoC5/adc.c ****     }
 1226              		.loc 1 707 0
 1227 001c 084B     		ldr	r3, .L80+12
 1228              	.LVL104:
 1229 001e 1B78     		ldrb	r3, [r3]	@ zero_extendqisi2
 1230              	.L78:
 713:Generated_Source\PSoC5/adc.c ****     {
 1231              		.loc 1 713 0
 1232 0020 084B     		ldr	r3, .L80+16
 1233 0022 1B79     		ldrb	r3, [r3, #4]	@ zero_extendqisi2
 1234 0024 13F0FF0F 		tst	r3, #255
 1235 0028 02D0     		beq	.L79
 715:Generated_Source\PSoC5/adc.c ****     }
 1236              		.loc 1 715 0
 1237 002a 0022     		movs	r2, #0
 1238 002c 054B     		ldr	r3, .L80+16
 1239 002e 5A71     		strb	r2, [r3, #5]
ARM GAS  C:\Users\hp\AppData\Local\Temp\ccOWzvx9.s 			page 56


 1240              	.L79:
 718:Generated_Source\PSoC5/adc.c **** 
 1241              		.loc 1 718 0
 1242 0030 7047     		bx	lr
 1243              	.L81:
 1244 0032 00BF     		.align	2
 1245              	.L80:
 1246 0034 144E0040 		.word	1073761812
 1247 0038 104E0040 		.word	1073761808
 1248 003c 114E0040 		.word	1073761809
 1249 0040 124E0040 		.word	1073761810
 1250 0044 00000000 		.word	.LANCHOR0
 1251              		.cfi_endproc
 1252              	.LFE11:
 1253              		.size	adc_GetResult8, .-adc_GetResult8
 1254              		.section	.text.adc_GetResult16,"ax",%progbits
 1255              		.align	2
 1256              		.global	adc_GetResult16
 1257              		.thumb
 1258              		.thumb_func
 1259              		.type	adc_GetResult16, %function
 1260              	adc_GetResult16:
 1261              	.LFB12:
 746:Generated_Source\PSoC5/adc.c ****     uint16 result;
 1262              		.loc 1 746 0
 1263              		.cfi_startproc
 1264              		@ args = 0, pretend = 0, frame = 0
 1265              		@ frame_needed = 0, uses_anonymous_args = 0
 1266              		@ link register save eliminated.
 751:Generated_Source\PSoC5/adc.c **** 
 1267              		.loc 1 751 0
 1268 0000 0E4B     		ldr	r3, .L86
 1269 0002 1B78     		ldrb	r3, [r3]	@ zero_extendqisi2
 1270 0004 03F00303 		and	r3, r3, #3
 1271              	.LVL105:
 753:Generated_Source\PSoC5/adc.c ****     {   /*  Use default method to read result registers i.e. LSB byte read at the end*/
 1272              		.loc 1 753 0
 1273 0008 012B     		cmp	r3, #1
 1274 000a 03D8     		bhi	.L83
 759:Generated_Source\PSoC5/adc.c ****         #endif /* CY_PSOC3 */
 1275              		.loc 1 759 0
 1276 000c 0C4B     		ldr	r3, .L86+4
 1277              	.LVL106:
 1278 000e 1888     		ldrh	r0, [r3]
 1279 0010 80B2     		uxth	r0, r0
 1280              	.LVL107:
 1281 0012 09E0     		b	.L84
 1282              	.LVL108:
 1283              	.L83:
 767:Generated_Source\PSoC5/adc.c ****             result |=  (uint16)((uint16)adc_DEC_SAMPM_REG << 8u);
 1284              		.loc 1 767 0
 1285 0014 0A4A     		ldr	r2, .L86+4
 1286 0016 1278     		ldrb	r2, [r2]	@ zero_extendqisi2
 1287              	.LVL109:
 768:Generated_Source\PSoC5/adc.c ****         #endif /* CY_PSOC3 */
 1288              		.loc 1 768 0
 1289 0018 0A49     		ldr	r1, .L86+8
ARM GAS  C:\Users\hp\AppData\Local\Temp\ccOWzvx9.s 			page 57


 1290 001a 0878     		ldrb	r0, [r1]	@ zero_extendqisi2
 1291 001c 42EA0020 		orr	r0, r2, r0, lsl #8
 1292              	.LVL110:
 770:Generated_Source\PSoC5/adc.c ****         {   /* Dummy read of the MSB byte to unlock the coherency */
 1293              		.loc 1 770 0
 1294 0020 032B     		cmp	r3, #3
 1295 0022 01D1     		bne	.L84
 772:Generated_Source\PSoC5/adc.c ****         }
 1296              		.loc 1 772 0
 1297 0024 084B     		ldr	r3, .L86+12
 1298              	.LVL111:
 1299 0026 1B78     		ldrb	r3, [r3]	@ zero_extendqisi2
 1300              	.L84:
 776:Generated_Source\PSoC5/adc.c ****     {
 1301              		.loc 1 776 0
 1302 0028 084B     		ldr	r3, .L86+16
 1303 002a 1B79     		ldrb	r3, [r3, #4]	@ zero_extendqisi2
 1304 002c 13F0FF0F 		tst	r3, #255
 1305 0030 02D0     		beq	.L85
 778:Generated_Source\PSoC5/adc.c ****     }
 1306              		.loc 1 778 0
 1307 0032 0022     		movs	r2, #0
 1308 0034 054B     		ldr	r3, .L86+16
 1309 0036 5A71     		strb	r2, [r3, #5]
 1310              	.L85:
 782:Generated_Source\PSoC5/adc.c **** 
 1311              		.loc 1 782 0
 1312 0038 00B2     		sxth	r0, r0
 1313 003a 7047     		bx	lr
 1314              	.L87:
 1315              		.align	2
 1316              	.L86:
 1317 003c 144E0040 		.word	1073761812
 1318 0040 104E0040 		.word	1073761808
 1319 0044 114E0040 		.word	1073761809
 1320 0048 124E0040 		.word	1073761810
 1321 004c 00000000 		.word	.LANCHOR0
 1322              		.cfi_endproc
 1323              	.LFE12:
 1324              		.size	adc_GetResult16, .-adc_GetResult16
 1325              		.section	.text.adc_GetResult32,"ax",%progbits
 1326              		.align	2
 1327              		.global	adc_GetResult32
 1328              		.thumb
 1329              		.thumb_func
 1330              		.type	adc_GetResult32, %function
 1331              	adc_GetResult32:
 1332              	.LFB13:
 806:Generated_Source\PSoC5/adc.c ****     uint32 result;
 1333              		.loc 1 806 0
 1334              		.cfi_startproc
 1335              		@ args = 0, pretend = 0, frame = 0
 1336              		@ frame_needed = 0, uses_anonymous_args = 0
 1337              		@ link register save eliminated.
 814:Generated_Source\PSoC5/adc.c **** 
 1338              		.loc 1 814 0
 1339 0000 154B     		ldr	r3, .L93
ARM GAS  C:\Users\hp\AppData\Local\Temp\ccOWzvx9.s 			page 58


 1340 0002 1B78     		ldrb	r3, [r3]	@ zero_extendqisi2
 1341 0004 03F00303 		and	r3, r3, #3
 1342              	.LVL112:
 816:Generated_Source\PSoC5/adc.c ****     {   /*  Use default method to read result registers i.e. LSB byte read at the end*/
 1343              		.loc 1 816 0
 1344 0008 012B     		cmp	r3, #1
 1345 000a 07D8     		bhi	.L89
 827:Generated_Source\PSoC5/adc.c ****             result = (result << 16u) | (CY_GET_REG16(adc_DEC_SAMP_16B_PTR));
 1346              		.loc 1 827 0
 1347 000c 134B     		ldr	r3, .L93+4
 1348              	.LVL113:
 1349 000e 1888     		ldrh	r0, [r3]
 1350              	.LVL114:
 828:Generated_Source\PSoC5/adc.c ****         #endif /* CY_PSOC3 */
 1351              		.loc 1 828 0
 1352 0010 023B     		subs	r3, r3, #2
 1353 0012 1B88     		ldrh	r3, [r3]
 1354 0014 9BB2     		uxth	r3, r3
 1355 0016 43EA0040 		orr	r0, r3, r0, lsl #16
 1356              	.LVL115:
 1357 001a 13E0     		b	.L90
 1358              	.LVL116:
 1359              	.L89:
 831:Generated_Source\PSoC5/adc.c ****     {   /* Read middle byte at the end */
 1360              		.loc 1 831 0
 1361 001c 022B     		cmp	r3, #2
 1362 001e 0AD1     		bne	.L91
 841:Generated_Source\PSoC5/adc.c ****             result = (result << 16u) | adc_DEC_SAMP_REG;
 1363              		.loc 1 841 0
 1364 0020 0E4B     		ldr	r3, .L93+4
 1365              	.LVL117:
 1366 0022 1888     		ldrh	r0, [r3]
 1367              	.LVL118:
 842:Generated_Source\PSoC5/adc.c ****             result |=  (uint32)((uint32)adc_DEC_SAMPM_REG << 8u);
 1368              		.loc 1 842 0
 1369 0024 023B     		subs	r3, r3, #2
 1370 0026 1B78     		ldrb	r3, [r3]	@ zero_extendqisi2
 1371 0028 43EA0043 		orr	r3, r3, r0, lsl #16
 1372              	.LVL119:
 843:Generated_Source\PSoC5/adc.c ****         #endif /* CY_PSOC3 */
 1373              		.loc 1 843 0
 1374 002c 0C4A     		ldr	r2, .L93+8
 1375 002e 1078     		ldrb	r0, [r2]	@ zero_extendqisi2
 1376 0030 43EA0020 		orr	r0, r3, r0, lsl #8
 1377              	.LVL120:
 1378 0034 06E0     		b	.L90
 1379              	.LVL121:
 1380              	.L91:
 858:Generated_Source\PSoC5/adc.c ****             result |= (uint32)((uint32)CY_GET_REG16(adc_DEC_SAMPH_16B_PTR) << 16u);
 1381              		.loc 1 858 0
 1382 0036 0B4B     		ldr	r3, .L93+12
 1383              	.LVL122:
 1384 0038 1888     		ldrh	r0, [r3]
 1385 003a 83B2     		uxth	r3, r0
 1386              	.LVL123:
 859:Generated_Source\PSoC5/adc.c ****         #endif /* CY_PSOC3 */
 1387              		.loc 1 859 0
ARM GAS  C:\Users\hp\AppData\Local\Temp\ccOWzvx9.s 			page 59


 1388 003c 074A     		ldr	r2, .L93+4
 1389 003e 1088     		ldrh	r0, [r2]
 1390 0040 43EA0040 		orr	r0, r3, r0, lsl #16
 1391              	.LVL124:
 1392              	.L90:
 863:Generated_Source\PSoC5/adc.c ****     {
 1393              		.loc 1 863 0
 1394 0044 084B     		ldr	r3, .L93+16
 1395 0046 1B79     		ldrb	r3, [r3, #4]	@ zero_extendqisi2
 1396 0048 13F0FF0F 		tst	r3, #255
 1397 004c 02D0     		beq	.L92
 865:Generated_Source\PSoC5/adc.c ****     }
 1398              		.loc 1 865 0
 1399 004e 0022     		movs	r2, #0
 1400 0050 054B     		ldr	r3, .L93+16
 1401 0052 5A71     		strb	r2, [r3, #5]
 1402              	.L92:
 869:Generated_Source\PSoC5/adc.c **** 
 1403              		.loc 1 869 0
 1404 0054 7047     		bx	lr
 1405              	.L94:
 1406 0056 00BF     		.align	2
 1407              	.L93:
 1408 0058 144E0040 		.word	1073761812
 1409 005c 124E0040 		.word	1073761810
 1410 0060 114E0040 		.word	1073761809
 1411 0064 104E0040 		.word	1073761808
 1412 0068 00000000 		.word	.LANCHOR0
 1413              		.cfi_endproc
 1414              	.LFE13:
 1415              		.size	adc_GetResult32, .-adc_GetResult32
 1416              		.section	.text.adc_SetOffset,"ax",%progbits
 1417              		.align	2
 1418              		.global	adc_SetOffset
 1419              		.thumb
 1420              		.thumb_func
 1421              		.type	adc_SetOffset, %function
 1422              	adc_SetOffset:
 1423              	.LFB14:
 899:Generated_Source\PSoC5/adc.c **** 
 1424              		.loc 1 899 0
 1425              		.cfi_startproc
 1426              		@ args = 0, pretend = 0, frame = 0
 1427              		@ frame_needed = 0, uses_anonymous_args = 0
 1428              		@ link register save eliminated.
 1429              	.LVL125:
 901:Generated_Source\PSoC5/adc.c **** }
 1430              		.loc 1 901 0
 1431 0000 014B     		ldr	r3, .L96
 1432 0002 1860     		str	r0, [r3]
 1433 0004 7047     		bx	lr
 1434              	.L97:
 1435 0006 00BF     		.align	2
 1436              	.L96:
 1437 0008 00000000 		.word	adc_Offset
 1438              		.cfi_endproc
 1439              	.LFE14:
ARM GAS  C:\Users\hp\AppData\Local\Temp\ccOWzvx9.s 			page 60


 1440              		.size	adc_SetOffset, .-adc_SetOffset
 1441              		.section	.text.adc_SetGain,"ax",%progbits
 1442              		.align	2
 1443              		.global	adc_SetGain
 1444              		.thumb
 1445              		.thumb_func
 1446              		.type	adc_SetGain, %function
 1447              	adc_SetGain:
 1448              	.LFB15:
 934:Generated_Source\PSoC5/adc.c ****     adc_CountsPerVolt = adcGain;
 1449              		.loc 1 934 0
 1450              		.cfi_startproc
 1451              		@ args = 0, pretend = 0, frame = 0
 1452              		@ frame_needed = 0, uses_anonymous_args = 0
 1453              		@ link register save eliminated.
 1454              	.LVL126:
 935:Generated_Source\PSoC5/adc.c **** }
 1455              		.loc 1 935 0
 1456 0000 014B     		ldr	r3, .L99
 1457 0002 1860     		str	r0, [r3]
 1458 0004 7047     		bx	lr
 1459              	.L100:
 1460 0006 00BF     		.align	2
 1461              	.L99:
 1462 0008 00000000 		.word	adc_CountsPerVolt
 1463              		.cfi_endproc
 1464              	.LFE15:
 1465              		.size	adc_SetGain, .-adc_SetGain
 1466              		.section	.text.adc_CountsTo_mVolts,"ax",%progbits
 1467              		.align	2
 1468              		.global	adc_CountsTo_mVolts
 1469              		.thumb
 1470              		.thumb_func
 1471              		.type	adc_CountsTo_mVolts, %function
 1472              	adc_CountsTo_mVolts:
 1473              	.LFB16:
 961:Generated_Source\PSoC5/adc.c **** 
 1474              		.loc 1 961 0
 1475              		.cfi_startproc
 1476              		@ args = 0, pretend = 0, frame = 0
 1477              		@ frame_needed = 0, uses_anonymous_args = 0
 1478              		@ link register save eliminated.
 1479              	.LVL127:
 992:Generated_Source\PSoC5/adc.c **** 
 1480              		.loc 1 992 0
 1481 0000 064B     		ldr	r3, .L102
 1482 0002 1B68     		ldr	r3, [r3]
 1483 0004 C01A     		subs	r0, r0, r3
 1484              	.LVL128:
 994:Generated_Source\PSoC5/adc.c **** 
 1485              		.loc 1 994 0
 1486 0006 4FF47A73 		mov	r3, #1000
 1487 000a 03FB00F0 		mul	r0, r3, r0
 1488              	.LVL129:
 1489 000e 044B     		ldr	r3, .L102+4
 1490 0010 1B68     		ldr	r3, [r3]
 1491 0012 90FBF3F0 		sdiv	r0, r0, r3
ARM GAS  C:\Users\hp\AppData\Local\Temp\ccOWzvx9.s 			page 61


 1492              	.LVL130:
 997:Generated_Source\PSoC5/adc.c **** 
 1493              		.loc 1 997 0
 1494 0016 00B2     		sxth	r0, r0
 1495 0018 7047     		bx	lr
 1496              	.L103:
 1497 001a 00BF     		.align	2
 1498              	.L102:
 1499 001c 00000000 		.word	adc_Offset
 1500 0020 00000000 		.word	adc_CountsPerVolt
 1501              		.cfi_endproc
 1502              	.LFE16:
 1503              		.size	adc_CountsTo_mVolts, .-adc_CountsTo_mVolts
 1504              		.global	__aeabi_i2f
 1505              		.global	__aeabi_fdiv
 1506              		.section	.text.adc_CountsTo_Volts,"ax",%progbits
 1507              		.align	2
 1508              		.global	adc_CountsTo_Volts
 1509              		.thumb
 1510              		.thumb_func
 1511              		.type	adc_CountsTo_Volts, %function
 1512              	adc_CountsTo_Volts:
 1513              	.LFB17:
1022:Generated_Source\PSoC5/adc.c **** 
 1514              		.loc 1 1022 0
 1515              		.cfi_startproc
 1516              		@ args = 0, pretend = 0, frame = 0
 1517              		@ frame_needed = 0, uses_anonymous_args = 0
 1518              	.LVL131:
 1519 0000 10B5     		push	{r4, lr}
 1520              		.cfi_def_cfa_offset 8
 1521              		.cfi_offset 4, -8
 1522              		.cfi_offset 14, -4
1053:Generated_Source\PSoC5/adc.c **** 
 1523              		.loc 1 1053 0
 1524 0002 074B     		ldr	r3, .L106
 1525 0004 1B68     		ldr	r3, [r3]
 1526              	.LVL132:
1055:Generated_Source\PSoC5/adc.c **** 
 1527              		.loc 1 1055 0
 1528 0006 C01A     		subs	r0, r0, r3
 1529              	.LVL133:
 1530 0008 FFF7FEFF 		bl	__aeabi_i2f
 1531              	.LVL134:
 1532 000c 0446     		mov	r4, r0
 1533 000e 054B     		ldr	r3, .L106+4
 1534 0010 1868     		ldr	r0, [r3]
 1535 0012 FFF7FEFF 		bl	__aeabi_i2f
 1536              	.LVL135:
 1537 0016 0146     		mov	r1, r0
 1538 0018 2046     		mov	r0, r4
 1539 001a FFF7FEFF 		bl	__aeabi_fdiv
 1540              	.LVL136:
1058:Generated_Source\PSoC5/adc.c **** 
 1541              		.loc 1 1058 0
 1542 001e 10BD     		pop	{r4, pc}
 1543              	.L107:
ARM GAS  C:\Users\hp\AppData\Local\Temp\ccOWzvx9.s 			page 62


 1544              		.align	2
 1545              	.L106:
 1546 0020 00000000 		.word	adc_Offset
 1547 0024 00000000 		.word	adc_CountsPerVolt
 1548              		.cfi_endproc
 1549              	.LFE17:
 1550              		.size	adc_CountsTo_Volts, .-adc_CountsTo_Volts
 1551              		.section	.text.adc_CountsTo_uVolts,"ax",%progbits
 1552              		.align	2
 1553              		.global	adc_CountsTo_uVolts
 1554              		.thumb
 1555              		.thumb_func
 1556              		.type	adc_CountsTo_uVolts, %function
 1557              	adc_CountsTo_uVolts:
 1558              	.LFB18:
1088:Generated_Source\PSoC5/adc.c **** 
 1559              		.loc 1 1088 0
 1560              		.cfi_startproc
 1561              		@ args = 0, pretend = 0, frame = 0
 1562              		@ frame_needed = 0, uses_anonymous_args = 0
 1563              		@ link register save eliminated.
 1564              	.LVL137:
 1565 0000 10B4     		push	{r4}
 1566              		.cfi_def_cfa_offset 4
 1567              		.cfi_offset 4, -4
1097:Generated_Source\PSoC5/adc.c ****     {
 1568              		.loc 1 1097 0
 1569 0002 184B     		ldr	r3, .L118
 1570 0004 1B78     		ldrb	r3, [r3]	@ zero_extendqisi2
 1571 0006 DBB2     		uxtb	r3, r3
 1572 0008 012B     		cmp	r3, #1
 1573 000a 08D0     		beq	.L113
1104:Generated_Source\PSoC5/adc.c ****     {
 1574              		.loc 1 1104 0
 1575 000c 154B     		ldr	r3, .L118
 1576 000e 1B78     		ldrb	r3, [r3]	@ zero_extendqisi2
 1577 0010 DBB2     		uxtb	r3, r3
 1578 0012 022B     		cmp	r3, #2
 1579 0014 05D0     		beq	.L114
1111:Generated_Source\PSoC5/adc.c ****     {
 1580              		.loc 1 1111 0
 1581 0016 134B     		ldr	r3, .L118
 1582 0018 1B78     		ldrb	r3, [r3]	@ zero_extendqisi2
1113:Generated_Source\PSoC5/adc.c ****         #if(adc_CFG3_DEC_DIV != 0)
 1583              		.loc 1 1113 0
 1584 001a 1023     		movs	r3, #16
 1585 001c 02E0     		b	.L109
 1586              	.L113:
1099:Generated_Source\PSoC5/adc.c ****         #if(adc_CFG1_DEC_DIV != 0)
 1587              		.loc 1 1099 0
 1588 001e 0F23     		movs	r3, #15
 1589 0020 00E0     		b	.L109
 1590              	.L114:
1106:Generated_Source\PSoC5/adc.c ****         #if(adc_CFG2_DEC_DIV != 0)
 1591              		.loc 1 1106 0
 1592 0022 1023     		movs	r3, #16
 1593              	.L109:
ARM GAS  C:\Users\hp\AppData\Local\Temp\ccOWzvx9.s 			page 63


 1594              	.LVL138:
1126:Generated_Source\PSoC5/adc.c ****     {
 1595              		.loc 1 1126 0
 1596 0024 0F2B     		cmp	r3, #15
 1597 0026 02D0     		beq	.L111
 1598 0028 102B     		cmp	r3, #16
 1599 002a 07D0     		beq	.L115
 1600 002c 03E0     		b	.L116
 1601              	.L111:
1161:Generated_Source\PSoC5/adc.c ****                 break;
 1602              		.loc 1 1161 0
 1603 002e 1021     		movs	r1, #16
1160:Generated_Source\PSoC5/adc.c ****                 coefB = adc_DIVISOR_16;
 1604              		.loc 1 1160 0
 1605 0030 4FF22444 		movw	r4, #62500
 1606 0034 05E0     		b	.L112
 1607              	.L116:
 1608              	.LVL139:
1212:Generated_Source\PSoC5/adc.c ****             break;
 1609              		.loc 1 1212 0
 1610 0036 0121     		movs	r1, #1
1211:Generated_Source\PSoC5/adc.c ****             coefB = adc_DIVISOR_1;
 1611              		.loc 1 1211 0
 1612 0038 0B4C     		ldr	r4, .L118+4
1213:Generated_Source\PSoC5/adc.c ****     }
 1613              		.loc 1 1213 0
 1614 003a 02E0     		b	.L112
 1615              	.LVL140:
 1616              	.L115:
1170:Generated_Source\PSoC5/adc.c ****                 break;
 1617              		.loc 1 1170 0
 1618 003c 2021     		movs	r1, #32
1169:Generated_Source\PSoC5/adc.c ****                 coefB = adc_DIVISOR_32;
 1619              		.loc 1 1169 0
 1620 003e 47F61224 		movw	r4, #31250
 1621              	.L112:
 1622              	.LVL141:
1215:Generated_Source\PSoC5/adc.c ****     uVolts = ((coefA * adcCounts) / coefB) - ((coefA * adc_Offset) / coefB);
 1623              		.loc 1 1215 0
 1624 0042 0A4B     		ldr	r3, .L118+8
 1625              	.LVL142:
 1626 0044 1B68     		ldr	r3, [r3]
 1627 0046 93FBF1F1 		sdiv	r1, r3, r1
 1628              	.LVL143:
1216:Generated_Source\PSoC5/adc.c **** 
 1629              		.loc 1 1216 0
 1630 004a 00FB04F0 		mul	r0, r0, r4
 1631              	.LVL144:
 1632 004e 90FBF1F3 		sdiv	r3, r0, r1
 1633 0052 074A     		ldr	r2, .L118+12
 1634 0054 1268     		ldr	r2, [r2]
 1635 0056 02FB04F2 		mul	r2, r2, r4
 1636 005a 92FBF1F0 		sdiv	r0, r2, r1
 1637              	.LVL145:
1219:Generated_Source\PSoC5/adc.c **** 
 1638              		.loc 1 1219 0
 1639 005e 181A     		subs	r0, r3, r0
ARM GAS  C:\Users\hp\AppData\Local\Temp\ccOWzvx9.s 			page 64


 1640              	.LVL146:
 1641 0060 10BC     		pop	{r4}
 1642              		.cfi_restore 4
 1643              		.cfi_def_cfa_offset 0
 1644              	.LVL147:
 1645 0062 7047     		bx	lr
 1646              	.L119:
 1647              		.align	2
 1648              	.L118:
 1649 0064 00000000 		.word	.LANCHOR1
 1650 0068 40420F00 		.word	1000000
 1651 006c 00000000 		.word	adc_CountsPerVolt
 1652 0070 00000000 		.word	adc_Offset
 1653              		.cfi_endproc
 1654              	.LFE18:
 1655              		.size	adc_CountsTo_uVolts, .-adc_CountsTo_uVolts
 1656              		.section	.text.adc_SelectConfiguration,"ax",%progbits
 1657              		.align	2
 1658              		.global	adc_SelectConfiguration
 1659              		.thumb
 1660              		.thumb_func
 1661              		.type	adc_SelectConfiguration, %function
 1662              	adc_SelectConfiguration:
 1663              	.LFB20:
1554:Generated_Source\PSoC5/adc.c ****     /* Check whether the configuration number is valid or not */
 1664              		.loc 1 1554 0
 1665              		.cfi_startproc
 1666              		@ args = 0, pretend = 0, frame = 0
 1667              		@ frame_needed = 0, uses_anonymous_args = 0
 1668              	.LVL148:
 1669 0000 38B5     		push	{r3, r4, r5, lr}
 1670              		.cfi_def_cfa_offset 16
 1671              		.cfi_offset 3, -16
 1672              		.cfi_offset 4, -12
 1673              		.cfi_offset 5, -8
 1674              		.cfi_offset 14, -4
1556:Generated_Source\PSoC5/adc.c ****     {
 1675              		.loc 1 1556 0
 1676 0002 0128     		cmp	r0, #1
 1677 0004 20D1     		bne	.L121
 1678 0006 0446     		mov	r4, r0
 1679 0008 0D46     		mov	r5, r1
1561:Generated_Source\PSoC5/adc.c ****         {
 1680              		.loc 1 1561 0
 1681 000a 114B     		ldr	r3, .L125
 1682 000c 9B79     		ldrb	r3, [r3, #6]	@ zero_extendqisi2
 1683 000e 13B9     		cbnz	r3, .L122
1563:Generated_Source\PSoC5/adc.c ****         }
 1684              		.loc 1 1563 0
 1685 0010 0122     		movs	r2, #1
 1686 0012 0F4B     		ldr	r3, .L125
 1687 0014 DA71     		strb	r2, [r3, #7]
 1688              	.L122:
1567:Generated_Source\PSoC5/adc.c **** 
 1689              		.loc 1 1567 0
 1690 0016 0F4B     		ldr	r3, .L125+4
 1691 0018 1C70     		strb	r4, [r3]
ARM GAS  C:\Users\hp\AppData\Local\Temp\ccOWzvx9.s 			page 65


1570:Generated_Source\PSoC5/adc.c **** 
 1692              		.loc 1 1570 0
 1693 001a FFF7FEFF 		bl	adc_Stop
 1694              	.LVL149:
1573:Generated_Source\PSoC5/adc.c **** 
 1695              		.loc 1 1573 0
 1696 001e 2046     		mov	r0, r4
 1697 0020 FFF7FEFF 		bl	adc_InitConfig
 1698              	.LVL150:
1576:Generated_Source\PSoC5/adc.c ****         CY_SET_REG16(adc_DEC_GCOR_16B_PTR, adc_gcor[config - 1u].gcor);
 1699              		.loc 1 1576 0
 1700 0024 013C     		subs	r4, r4, #1
 1701 0026 0A4B     		ldr	r3, .L125
 1702 0028 03EB8402 		add	r2, r3, r4, lsl #2
 1703 002c 9178     		ldrb	r1, [r2, #2]	@ zero_extendqisi2
 1704 002e 0A4A     		ldr	r2, .L125+8
 1705 0030 1170     		strb	r1, [r2]
1577:Generated_Source\PSoC5/adc.c **** 
 1706              		.loc 1 1577 0
 1707 0032 33F82420 		ldrh	r2, [r3, r4, lsl #2]
 1708 0036 094B     		ldr	r3, .L125+12
 1709 0038 1A80     		strh	r2, [r3]	@ movhi
1579:Generated_Source\PSoC5/adc.c ****         {
 1710              		.loc 1 1579 0
 1711 003a 012D     		cmp	r5, #1
 1712 003c 07D1     		bne	.L120
1582:Generated_Source\PSoC5/adc.c **** 
 1713              		.loc 1 1582 0
 1714 003e FFF7FEFF 		bl	adc_Start
 1715              	.LVL151:
1585:Generated_Source\PSoC5/adc.c ****         }
 1716              		.loc 1 1585 0
 1717 0042 FFF7FEFF 		bl	adc_StartConvert
 1718              	.LVL152:
 1719 0046 38BD     		pop	{r3, r4, r5, pc}
 1720              	.LVL153:
 1721              	.L121:
1591:Generated_Source\PSoC5/adc.c ****     }
 1722              		.loc 1 1591 0 discriminator 1
 1723 0048 0020     		movs	r0, #0
 1724              	.LVL154:
 1725 004a FFF7FEFF 		bl	CyHalt
 1726              	.LVL155:
 1727              	.L120:
 1728 004e 38BD     		pop	{r3, r4, r5, pc}
 1729              	.L126:
 1730              		.align	2
 1731              	.L125:
 1732 0050 00000000 		.word	.LANCHOR0
 1733 0054 00000000 		.word	.LANCHOR1
 1734 0058 0E4E0040 		.word	1073761806
 1735 005c 0C4E0040 		.word	1073761804
 1736              		.cfi_endproc
 1737              	.LFE20:
 1738              		.size	adc_SelectConfiguration, .-adc_SelectConfiguration
 1739              		.section	.text.adc_Read8,"ax",%progbits
 1740              		.align	2
ARM GAS  C:\Users\hp\AppData\Local\Temp\ccOWzvx9.s 			page 66


 1741              		.global	adc_Read8
 1742              		.thumb
 1743              		.thumb_func
 1744              		.type	adc_Read8, %function
 1745              	adc_Read8:
 1746              	.LFB23:
1741:Generated_Source\PSoC5/adc.c **** }
1742:Generated_Source\PSoC5/adc.c **** 
1743:Generated_Source\PSoC5/adc.c **** 
1744:Generated_Source\PSoC5/adc.c **** /*******************************************************************************
1745:Generated_Source\PSoC5/adc.c **** * Function Name: adc_Read8
1746:Generated_Source\PSoC5/adc.c **** ********************************************************************************
1747:Generated_Source\PSoC5/adc.c **** *
1748:Generated_Source\PSoC5/adc.c **** * Summary:
1749:Generated_Source\PSoC5/adc.c **** *  This function simplifies getting results from the ADC when only a
1750:Generated_Source\PSoC5/adc.c **** *  single reading is required. When called, it will start ADC
1751:Generated_Source\PSoC5/adc.c **** *  conversions, wait for the conversion to be complete, stop ADC
1752:Generated_Source\PSoC5/adc.c **** *  conversion and return the result. This is a blocking function and will
1753:Generated_Source\PSoC5/adc.c **** *  not return until the result is ready.
1754:Generated_Source\PSoC5/adc.c **** *
1755:Generated_Source\PSoC5/adc.c **** * Parameters:
1756:Generated_Source\PSoC5/adc.c **** *  None
1757:Generated_Source\PSoC5/adc.c **** *
1758:Generated_Source\PSoC5/adc.c **** * Return:
1759:Generated_Source\PSoC5/adc.c **** *  int8:  ADC result.
1760:Generated_Source\PSoC5/adc.c **** *
1761:Generated_Source\PSoC5/adc.c **** *******************************************************************************/
1762:Generated_Source\PSoC5/adc.c **** int8 adc_Read8(void) 
1763:Generated_Source\PSoC5/adc.c **** {
 1747              		.loc 1 1763 0
 1748              		.cfi_startproc
 1749              		@ args = 0, pretend = 0, frame = 0
 1750              		@ frame_needed = 0, uses_anonymous_args = 0
 1751 0000 10B5     		push	{r4, lr}
 1752              		.cfi_def_cfa_offset 8
 1753              		.cfi_offset 4, -8
 1754              		.cfi_offset 14, -4
1764:Generated_Source\PSoC5/adc.c ****     int8 result;
1765:Generated_Source\PSoC5/adc.c **** 
1766:Generated_Source\PSoC5/adc.c ****     /* Clear pending conversion done status */
1767:Generated_Source\PSoC5/adc.c ****     adc_DEC_SR_REG |= adc_DEC_INTR_CLEAR;
 1755              		.loc 1 1767 0
 1756 0002 084A     		ldr	r2, .L129
 1757 0004 1378     		ldrb	r3, [r2]	@ zero_extendqisi2
 1758 0006 43F00403 		orr	r3, r3, #4
 1759 000a 1370     		strb	r3, [r2]
1768:Generated_Source\PSoC5/adc.c ****     adc_StartConvert();
 1760              		.loc 1 1768 0
 1761 000c FFF7FEFF 		bl	adc_StartConvert
 1762              	.LVL156:
1769:Generated_Source\PSoC5/adc.c ****     (void)adc_IsEndConversion(adc_WAIT_FOR_RESULT);
 1763              		.loc 1 1769 0
 1764 0010 0020     		movs	r0, #0
 1765 0012 FFF7FEFF 		bl	adc_IsEndConversion
 1766              	.LVL157:
1770:Generated_Source\PSoC5/adc.c ****      result = adc_GetResult8();
 1767              		.loc 1 1770 0
ARM GAS  C:\Users\hp\AppData\Local\Temp\ccOWzvx9.s 			page 67


 1768 0016 FFF7FEFF 		bl	adc_GetResult8
 1769              	.LVL158:
 1770 001a 0446     		mov	r4, r0
 1771              	.LVL159:
1771:Generated_Source\PSoC5/adc.c ****     adc_StopConvert();
 1772              		.loc 1 1771 0
 1773 001c FFF7FEFF 		bl	adc_StopConvert
 1774              	.LVL160:
1772:Generated_Source\PSoC5/adc.c ****     
1773:Generated_Source\PSoC5/adc.c ****      return(result);
1774:Generated_Source\PSoC5/adc.c **** }
 1775              		.loc 1 1774 0
 1776 0020 2046     		mov	r0, r4
 1777 0022 10BD     		pop	{r4, pc}
 1778              	.LVL161:
 1779              	.L130:
 1780              		.align	2
 1781              	.L129:
 1782 0024 014E0040 		.word	1073761793
 1783              		.cfi_endproc
 1784              	.LFE23:
 1785              		.size	adc_Read8, .-adc_Read8
 1786              		.section	.text.adc_Read16,"ax",%progbits
 1787              		.align	2
 1788              		.global	adc_Read16
 1789              		.thumb
 1790              		.thumb_func
 1791              		.type	adc_Read16, %function
 1792              	adc_Read16:
 1793              	.LFB24:
1775:Generated_Source\PSoC5/adc.c **** 
1776:Generated_Source\PSoC5/adc.c **** 
1777:Generated_Source\PSoC5/adc.c **** /*******************************************************************************
1778:Generated_Source\PSoC5/adc.c **** * Function Name: adc_Read16
1779:Generated_Source\PSoC5/adc.c **** ********************************************************************************
1780:Generated_Source\PSoC5/adc.c **** *
1781:Generated_Source\PSoC5/adc.c **** * Summary:
1782:Generated_Source\PSoC5/adc.c **** *  This function simplifies getting results from the ADC when only a
1783:Generated_Source\PSoC5/adc.c **** *  single reading is required. When called, it will start ADC
1784:Generated_Source\PSoC5/adc.c **** *  conversions, wait for the conversion to be complete, stop ADC
1785:Generated_Source\PSoC5/adc.c **** *  conversion and return the result. This is a blocking function and will
1786:Generated_Source\PSoC5/adc.c **** *  not return until the result is ready.
1787:Generated_Source\PSoC5/adc.c **** *
1788:Generated_Source\PSoC5/adc.c **** * Parameters:
1789:Generated_Source\PSoC5/adc.c **** *   void
1790:Generated_Source\PSoC5/adc.c **** *
1791:Generated_Source\PSoC5/adc.c **** * Return:
1792:Generated_Source\PSoC5/adc.c **** *  int16:  ADC result.
1793:Generated_Source\PSoC5/adc.c **** *
1794:Generated_Source\PSoC5/adc.c **** *******************************************************************************/
1795:Generated_Source\PSoC5/adc.c **** int16 adc_Read16(void) 
1796:Generated_Source\PSoC5/adc.c **** {
 1794              		.loc 1 1796 0
 1795              		.cfi_startproc
 1796              		@ args = 0, pretend = 0, frame = 0
 1797              		@ frame_needed = 0, uses_anonymous_args = 0
 1798 0000 10B5     		push	{r4, lr}
ARM GAS  C:\Users\hp\AppData\Local\Temp\ccOWzvx9.s 			page 68


 1799              		.cfi_def_cfa_offset 8
 1800              		.cfi_offset 4, -8
 1801              		.cfi_offset 14, -4
1797:Generated_Source\PSoC5/adc.c ****     int16 result;
1798:Generated_Source\PSoC5/adc.c **** 
1799:Generated_Source\PSoC5/adc.c ****     /* Clear pending conversion done status */
1800:Generated_Source\PSoC5/adc.c ****     adc_DEC_SR_REG |= adc_DEC_INTR_CLEAR;
 1802              		.loc 1 1800 0
 1803 0002 084A     		ldr	r2, .L133
 1804 0004 1378     		ldrb	r3, [r2]	@ zero_extendqisi2
 1805 0006 43F00403 		orr	r3, r3, #4
 1806 000a 1370     		strb	r3, [r2]
1801:Generated_Source\PSoC5/adc.c ****     adc_StartConvert();
 1807              		.loc 1 1801 0
 1808 000c FFF7FEFF 		bl	adc_StartConvert
 1809              	.LVL162:
1802:Generated_Source\PSoC5/adc.c ****     (void)adc_IsEndConversion(adc_WAIT_FOR_RESULT);
 1810              		.loc 1 1802 0
 1811 0010 0020     		movs	r0, #0
 1812 0012 FFF7FEFF 		bl	adc_IsEndConversion
 1813              	.LVL163:
1803:Generated_Source\PSoC5/adc.c ****      result = adc_GetResult16();
 1814              		.loc 1 1803 0
 1815 0016 FFF7FEFF 		bl	adc_GetResult16
 1816              	.LVL164:
 1817 001a 0446     		mov	r4, r0
 1818              	.LVL165:
1804:Generated_Source\PSoC5/adc.c ****     adc_StopConvert();
 1819              		.loc 1 1804 0
 1820 001c FFF7FEFF 		bl	adc_StopConvert
 1821              	.LVL166:
1805:Generated_Source\PSoC5/adc.c ****     
1806:Generated_Source\PSoC5/adc.c ****      return(result);
1807:Generated_Source\PSoC5/adc.c **** }
 1822              		.loc 1 1807 0
 1823 0020 2046     		mov	r0, r4
 1824 0022 10BD     		pop	{r4, pc}
 1825              	.LVL167:
 1826              	.L134:
 1827              		.align	2
 1828              	.L133:
 1829 0024 014E0040 		.word	1073761793
 1830              		.cfi_endproc
 1831              	.LFE24:
 1832              		.size	adc_Read16, .-adc_Read16
 1833              		.section	.text.adc_Read32,"ax",%progbits
 1834              		.align	2
 1835              		.global	adc_Read32
 1836              		.thumb
 1837              		.thumb_func
 1838              		.type	adc_Read32, %function
 1839              	adc_Read32:
 1840              	.LFB25:
1808:Generated_Source\PSoC5/adc.c **** 
1809:Generated_Source\PSoC5/adc.c **** 
1810:Generated_Source\PSoC5/adc.c **** /*******************************************************************************
1811:Generated_Source\PSoC5/adc.c **** * Function Name: adc_Read32
ARM GAS  C:\Users\hp\AppData\Local\Temp\ccOWzvx9.s 			page 69


1812:Generated_Source\PSoC5/adc.c **** ********************************************************************************
1813:Generated_Source\PSoC5/adc.c **** *
1814:Generated_Source\PSoC5/adc.c **** * Summary:
1815:Generated_Source\PSoC5/adc.c **** *  This function simplifies getting results from the ADC when only a
1816:Generated_Source\PSoC5/adc.c **** *  single reading is required. When called, it will start ADC
1817:Generated_Source\PSoC5/adc.c **** *  conversions, wait for the conversion to be complete, stop ADC
1818:Generated_Source\PSoC5/adc.c **** *  conversion and return the result. This is a blocking function and will
1819:Generated_Source\PSoC5/adc.c **** *  not return until the result is ready.
1820:Generated_Source\PSoC5/adc.c **** *
1821:Generated_Source\PSoC5/adc.c **** * Parameters:
1822:Generated_Source\PSoC5/adc.c **** *  None
1823:Generated_Source\PSoC5/adc.c **** *
1824:Generated_Source\PSoC5/adc.c **** * Return:
1825:Generated_Source\PSoC5/adc.c **** *  int32: ADC result.
1826:Generated_Source\PSoC5/adc.c **** *
1827:Generated_Source\PSoC5/adc.c **** *******************************************************************************/
1828:Generated_Source\PSoC5/adc.c **** int32 adc_Read32(void) 
1829:Generated_Source\PSoC5/adc.c **** {
 1841              		.loc 1 1829 0
 1842              		.cfi_startproc
 1843              		@ args = 0, pretend = 0, frame = 0
 1844              		@ frame_needed = 0, uses_anonymous_args = 0
 1845 0000 10B5     		push	{r4, lr}
 1846              		.cfi_def_cfa_offset 8
 1847              		.cfi_offset 4, -8
 1848              		.cfi_offset 14, -4
1830:Generated_Source\PSoC5/adc.c ****     int32 result;
1831:Generated_Source\PSoC5/adc.c ****     
1832:Generated_Source\PSoC5/adc.c ****     /* Clear pending conversion done status */
1833:Generated_Source\PSoC5/adc.c ****     adc_DEC_SR_REG |= adc_DEC_INTR_CLEAR;
 1849              		.loc 1 1833 0
 1850 0002 084A     		ldr	r2, .L137
 1851 0004 1378     		ldrb	r3, [r2]	@ zero_extendqisi2
 1852 0006 43F00403 		orr	r3, r3, #4
 1853 000a 1370     		strb	r3, [r2]
1834:Generated_Source\PSoC5/adc.c ****     adc_StartConvert();
 1854              		.loc 1 1834 0
 1855 000c FFF7FEFF 		bl	adc_StartConvert
 1856              	.LVL168:
1835:Generated_Source\PSoC5/adc.c ****     (void)adc_IsEndConversion(adc_WAIT_FOR_RESULT);
 1857              		.loc 1 1835 0
 1858 0010 0020     		movs	r0, #0
 1859 0012 FFF7FEFF 		bl	adc_IsEndConversion
 1860              	.LVL169:
1836:Generated_Source\PSoC5/adc.c ****      result = adc_GetResult32();
 1861              		.loc 1 1836 0
 1862 0016 FFF7FEFF 		bl	adc_GetResult32
 1863              	.LVL170:
 1864 001a 0446     		mov	r4, r0
 1865              	.LVL171:
1837:Generated_Source\PSoC5/adc.c ****     adc_StopConvert();
 1866              		.loc 1 1837 0
 1867 001c FFF7FEFF 		bl	adc_StopConvert
 1868              	.LVL172:
1838:Generated_Source\PSoC5/adc.c ****     
1839:Generated_Source\PSoC5/adc.c ****      return(result);
1840:Generated_Source\PSoC5/adc.c **** }
ARM GAS  C:\Users\hp\AppData\Local\Temp\ccOWzvx9.s 			page 70


 1869              		.loc 1 1840 0
 1870 0020 2046     		mov	r0, r4
 1871 0022 10BD     		pop	{r4, pc}
 1872              	.LVL173:
 1873              	.L138:
 1874              		.align	2
 1875              	.L137:
 1876 0024 014E0040 		.word	1073761793
 1877              		.cfi_endproc
 1878              	.LFE25:
 1879              		.size	adc_Read32, .-adc_Read32
 1880              		.comm	adc_CountsPerVolt,4,4
 1881              		.comm	adc_Offset,4,4
 1882              		.global	adc_Config
 1883              		.global	adc_started
 1884              		.global	adc_initVar
 1885              		.global	adc_stopConversion
 1886              		.global	adc_convDone
 1887              		.data
 1888              		.set	.LANCHOR1,. + 0
 1889              		.type	adc_Config, %object
 1890              		.size	adc_Config, 1
 1891              	adc_Config:
 1892 0000 01       		.byte	1
 1893              		.bss
 1894              		.align	2
 1895              		.set	.LANCHOR0,. + 0
 1896              		.type	adc_gcor, %object
 1897              		.size	adc_gcor, 4
 1898              	adc_gcor:
 1899 0000 00000000 		.space	4
 1900              		.type	adc_stopConversion, %object
 1901              		.size	adc_stopConversion, 1
 1902              	adc_stopConversion:
 1903 0004 00       		.space	1
 1904              		.type	adc_convDone, %object
 1905              		.size	adc_convDone, 1
 1906              	adc_convDone:
 1907 0005 00       		.space	1
 1908              		.type	adc_initVar, %object
 1909              		.size	adc_initVar, 1
 1910              	adc_initVar:
 1911 0006 00       		.space	1
 1912              		.type	adc_started, %object
 1913              		.size	adc_started, 1
 1914              	adc_started:
 1915 0007 00       		.space	1
 1916              		.text
 1917              	.Letext0:
 1918              		.file 2 "Generated_Source\\PSoC5\\cytypes.h"
 1919              		.file 3 "Generated_Source\\PSoC5\\adc.h"
 1920              		.file 4 "Generated_Source\\PSoC5\\CyLib.h"
 1921              		.file 5 "Generated_Source\\PSoC5\\adc_Ext_CP_Clk.h"
 1922              		.file 6 "Generated_Source\\PSoC5\\adc_theACLK.h"
 1923              		.section	.debug_info,"",%progbits
 1924              	.Ldebug_info0:
 1925 0000 FB090000 		.4byte	0x9fb
ARM GAS  C:\Users\hp\AppData\Local\Temp\ccOWzvx9.s 			page 71


 1926 0004 0400     		.2byte	0x4
 1927 0006 00000000 		.4byte	.Ldebug_abbrev0
 1928 000a 04       		.byte	0x4
 1929 000b 01       		.uleb128 0x1
 1930 000c A7030000 		.4byte	.LASF100
 1931 0010 0C       		.byte	0xc
 1932 0011 5E050000 		.4byte	.LASF101
 1933 0015 9C040000 		.4byte	.LASF102
 1934 0019 00000000 		.4byte	.Ldebug_ranges0+0
 1935 001d 00000000 		.4byte	0
 1936 0021 00000000 		.4byte	.Ldebug_line0
 1937 0025 02       		.uleb128 0x2
 1938 0026 04       		.byte	0x4
 1939 0027 04       		.byte	0x4
 1940 0028 2D030000 		.4byte	.LASF0
 1941 002c 02       		.uleb128 0x2
 1942 002d 01       		.byte	0x1
 1943 002e 06       		.byte	0x6
 1944 002f F0000000 		.4byte	.LASF1
 1945 0033 02       		.uleb128 0x2
 1946 0034 01       		.byte	0x1
 1947 0035 08       		.byte	0x8
 1948 0036 70030000 		.4byte	.LASF2
 1949 003a 02       		.uleb128 0x2
 1950 003b 02       		.byte	0x2
 1951 003c 05       		.byte	0x5
 1952 003d 8A030000 		.4byte	.LASF3
 1953 0041 02       		.uleb128 0x2
 1954 0042 02       		.byte	0x2
 1955 0043 07       		.byte	0x7
 1956 0044 3B020000 		.4byte	.LASF4
 1957 0048 02       		.uleb128 0x2
 1958 0049 04       		.byte	0x4
 1959 004a 05       		.byte	0x5
 1960 004b 17010000 		.4byte	.LASF5
 1961 004f 02       		.uleb128 0x2
 1962 0050 04       		.byte	0x4
 1963 0051 07       		.byte	0x7
 1964 0052 02020000 		.4byte	.LASF6
 1965 0056 02       		.uleb128 0x2
 1966 0057 08       		.byte	0x8
 1967 0058 05       		.byte	0x5
 1968 0059 E2000000 		.4byte	.LASF7
 1969 005d 02       		.uleb128 0x2
 1970 005e 08       		.byte	0x8
 1971 005f 07       		.byte	0x7
 1972 0060 AC000000 		.4byte	.LASF8
 1973 0064 03       		.uleb128 0x3
 1974 0065 04       		.byte	0x4
 1975 0066 05       		.byte	0x5
 1976 0067 696E7400 		.ascii	"int\000"
 1977 006b 02       		.uleb128 0x2
 1978 006c 04       		.byte	0x4
 1979 006d 07       		.byte	0x7
 1980 006e DA010000 		.4byte	.LASF9
 1981 0072 04       		.uleb128 0x4
 1982 0073 2F010000 		.4byte	.LASF10
ARM GAS  C:\Users\hp\AppData\Local\Temp\ccOWzvx9.s 			page 72


 1983 0077 02       		.byte	0x2
 1984 0078 9201     		.2byte	0x192
 1985 007a 33000000 		.4byte	0x33
 1986 007e 04       		.uleb128 0x4
 1987 007f 14000000 		.4byte	.LASF11
 1988 0083 02       		.byte	0x2
 1989 0084 9301     		.2byte	0x193
 1990 0086 41000000 		.4byte	0x41
 1991 008a 04       		.uleb128 0x4
 1992 008b 61010000 		.4byte	.LASF12
 1993 008f 02       		.byte	0x2
 1994 0090 9401     		.2byte	0x194
 1995 0092 4F000000 		.4byte	0x4f
 1996 0096 04       		.uleb128 0x4
 1997 0097 79020000 		.4byte	.LASF13
 1998 009b 02       		.byte	0x2
 1999 009c 9501     		.2byte	0x195
 2000 009e 2C000000 		.4byte	0x2c
 2001 00a2 04       		.uleb128 0x4
 2002 00a3 7B050000 		.4byte	.LASF14
 2003 00a7 02       		.byte	0x2
 2004 00a8 9601     		.2byte	0x196
 2005 00aa 3A000000 		.4byte	0x3a
 2006 00ae 04       		.uleb128 0x4
 2007 00af FC000000 		.4byte	.LASF15
 2008 00b3 02       		.byte	0x2
 2009 00b4 9701     		.2byte	0x197
 2010 00b6 48000000 		.4byte	0x48
 2011 00ba 04       		.uleb128 0x4
 2012 00bb BA020000 		.4byte	.LASF16
 2013 00bf 02       		.byte	0x2
 2014 00c0 9801     		.2byte	0x198
 2015 00c2 25000000 		.4byte	0x25
 2016 00c6 02       		.uleb128 0x2
 2017 00c7 08       		.byte	0x8
 2018 00c8 04       		.byte	0x4
 2019 00c9 3F010000 		.4byte	.LASF17
 2020 00cd 02       		.uleb128 0x2
 2021 00ce 01       		.byte	0x1
 2022 00cf 08       		.byte	0x8
 2023 00d0 74040000 		.4byte	.LASF18
 2024 00d4 04       		.uleb128 0x4
 2025 00d5 4C030000 		.4byte	.LASF19
 2026 00d9 02       		.byte	0x2
 2027 00da 3C02     		.2byte	0x23c
 2028 00dc E0000000 		.4byte	0xe0
 2029 00e0 05       		.uleb128 0x5
 2030 00e1 72000000 		.4byte	0x72
 2031 00e5 04       		.uleb128 0x4
 2032 00e6 29010000 		.4byte	.LASF20
 2033 00ea 02       		.byte	0x2
 2034 00eb 3D02     		.2byte	0x23d
 2035 00ed F1000000 		.4byte	0xf1
 2036 00f1 05       		.uleb128 0x5
 2037 00f2 7E000000 		.4byte	0x7e
 2038 00f6 04       		.uleb128 0x4
 2039 00f7 B4020000 		.4byte	.LASF21
ARM GAS  C:\Users\hp\AppData\Local\Temp\ccOWzvx9.s 			page 73


 2040 00fb 02       		.byte	0x2
 2041 00fc 3E02     		.2byte	0x23e
 2042 00fe 02010000 		.4byte	0x102
 2043 0102 05       		.uleb128 0x5
 2044 0103 8A000000 		.4byte	0x8a
 2045 0107 02       		.uleb128 0x2
 2046 0108 08       		.byte	0x8
 2047 0109 04       		.byte	0x4
 2048 010a D6020000 		.4byte	.LASF22
 2049 010e 02       		.uleb128 0x2
 2050 010f 04       		.byte	0x4
 2051 0110 07       		.byte	0x7
 2052 0111 C2020000 		.4byte	.LASF23
 2053 0115 06       		.uleb128 0x6
 2054 0116 04       		.byte	0x4
 2055 0117 03       		.byte	0x3
 2056 0118 2F       		.byte	0x2f
 2057 0119 36010000 		.4byte	0x136
 2058 011d 07       		.uleb128 0x7
 2059 011e 9E000000 		.4byte	.LASF24
 2060 0122 03       		.byte	0x3
 2061 0123 31       		.byte	0x31
 2062 0124 7E000000 		.4byte	0x7e
 2063 0128 00       		.byte	0
 2064 0129 07       		.uleb128 0x7
 2065 012a 97040000 		.4byte	.LASF25
 2066 012e 03       		.byte	0x3
 2067 012f 32       		.byte	0x32
 2068 0130 72000000 		.4byte	0x72
 2069 0134 02       		.byte	0x2
 2070 0135 00       		.byte	0
 2071 0136 08       		.uleb128 0x8
 2072 0137 58040000 		.4byte	.LASF26
 2073 013b 03       		.byte	0x3
 2074 013c 33       		.byte	0x33
 2075 013d 15010000 		.4byte	0x115
 2076 0141 09       		.uleb128 0x9
 2077 0142 02010000 		.4byte	.LASF36
 2078 0146 01       		.byte	0x1
 2079 0147 5106     		.2byte	0x651
 2080 0149 00000000 		.4byte	.LFB21
 2081 014d DC000000 		.4byte	.LFE21-.LFB21
 2082 0151 01       		.uleb128 0x1
 2083 0152 9C       		.byte	0x9c
 2084 0153 F7010000 		.4byte	0x1f7
 2085 0157 0A       		.uleb128 0xa
 2086 0158 39000000 		.4byte	.LASF27
 2087 015c 01       		.byte	0x1
 2088 015d 5106     		.2byte	0x651
 2089 015f 72000000 		.4byte	0x72
 2090 0163 00000000 		.4byte	.LLST0
 2091 0167 0A       		.uleb128 0xa
 2092 0168 51030000 		.4byte	.LASF28
 2093 016c 01       		.byte	0x1
 2094 016d 5106     		.2byte	0x651
 2095 016f 7E000000 		.4byte	0x7e
 2096 0173 3A000000 		.4byte	.LLST1
ARM GAS  C:\Users\hp\AppData\Local\Temp\ccOWzvx9.s 			page 74


 2097 0177 0A       		.uleb128 0xa
 2098 0178 C3000000 		.4byte	.LASF29
 2099 017c 01       		.byte	0x1
 2100 017d 5106     		.2byte	0x651
 2101 017f 7E000000 		.4byte	0x7e
 2102 0183 74000000 		.4byte	.LLST2
 2103 0187 0A       		.uleb128 0xa
 2104 0188 35040000 		.4byte	.LASF30
 2105 018c 01       		.byte	0x1
 2106 018d 5206     		.2byte	0x652
 2107 018f 72000000 		.4byte	0x72
 2108 0193 AE000000 		.4byte	.LLST3
 2109 0197 0A       		.uleb128 0xa
 2110 0198 80040000 		.4byte	.LASF31
 2111 019c 01       		.byte	0x1
 2112 019d 5206     		.2byte	0x652
 2113 019f 72000000 		.4byte	0x72
 2114 01a3 01010000 		.4byte	.LLST4
 2115 01a7 0B       		.uleb128 0xb
 2116 01a8 AE020000 		.4byte	.LASF32
 2117 01ac 01       		.byte	0x1
 2118 01ad 5406     		.2byte	0x654
 2119 01af 96000000 		.4byte	0x96
 2120 01b3 2D010000 		.4byte	.LLST5
 2121 01b7 0B       		.uleb128 0xb
 2122 01b8 5E030000 		.4byte	.LASF33
 2123 01bc 01       		.byte	0x1
 2124 01bd 5506     		.2byte	0x655
 2125 01bf AE000000 		.4byte	0xae
 2126 01c3 A3010000 		.4byte	.LLST6
 2127 01c7 0B       		.uleb128 0xb
 2128 01c8 8C020000 		.4byte	.LASF34
 2129 01cc 01       		.byte	0x1
 2130 01cd 5606     		.2byte	0x656
 2131 01cf 7E000000 		.4byte	0x7e
 2132 01d3 B6010000 		.4byte	.LLST7
 2133 01d7 0B       		.uleb128 0xb
 2134 01d8 9F030000 		.4byte	.LASF35
 2135 01dc 01       		.byte	0x1
 2136 01dd 5706     		.2byte	0x657
 2137 01df 8A000000 		.4byte	0x8a
 2138 01e3 DF010000 		.4byte	.LLST8
 2139 01e7 0C       		.uleb128 0xc
 2140 01e8 B4000000 		.4byte	.LVL33
 2141 01ec 90090000 		.4byte	0x990
 2142 01f0 0D       		.uleb128 0xd
 2143 01f1 01       		.uleb128 0x1
 2144 01f2 50       		.byte	0x50
 2145 01f3 01       		.uleb128 0x1
 2146 01f4 30       		.byte	0x30
 2147 01f5 00       		.byte	0
 2148 01f6 00       		.byte	0
 2149 01f7 09       		.uleb128 0x9
 2150 01f8 41050000 		.4byte	.LASF37
 2151 01fc 01       		.byte	0x1
 2152 01fd BC06     		.2byte	0x6bc
 2153 01ff 00000000 		.4byte	.LFB22
ARM GAS  C:\Users\hp\AppData\Local\Temp\ccOWzvx9.s 			page 75


 2154 0203 4C000000 		.4byte	.LFE22-.LFB22
 2155 0207 01       		.uleb128 0x1
 2156 0208 9C       		.byte	0x9c
 2157 0209 5A020000 		.4byte	0x25a
 2158 020d 0A       		.uleb128 0xa
 2159 020e AF010000 		.4byte	.LASF38
 2160 0212 01       		.byte	0x1
 2161 0213 BC06     		.2byte	0x6bc
 2162 0215 72000000 		.4byte	0x72
 2163 0219 F2010000 		.4byte	.LLST9
 2164 021d 0B       		.uleb128 0xb
 2165 021e 1D050000 		.4byte	.LASF39
 2166 0222 01       		.byte	0x1
 2167 0223 BE06     		.2byte	0x6be
 2168 0225 72000000 		.4byte	0x72
 2169 0229 13020000 		.4byte	.LLST10
 2170 022d 0E       		.uleb128 0xe
 2171 022e 08000000 		.4byte	.LVL36
 2172 0232 9B090000 		.4byte	0x99b
 2173 0236 0F       		.uleb128 0xf
 2174 0237 28000000 		.4byte	.LVL38
 2175 023b A6090000 		.4byte	0x9a6
 2176 023f 49020000 		.4byte	0x249
 2177 0243 0D       		.uleb128 0xd
 2178 0244 01       		.uleb128 0x1
 2179 0245 50       		.byte	0x50
 2180 0246 01       		.uleb128 0x1
 2181 0247 33       		.byte	0x33
 2182 0248 00       		.byte	0
 2183 0249 0C       		.uleb128 0xc
 2184 024a 3E000000 		.4byte	.LVL39
 2185 024e B1090000 		.4byte	0x9b1
 2186 0252 0D       		.uleb128 0xd
 2187 0253 01       		.uleb128 0x1
 2188 0254 50       		.byte	0x50
 2189 0255 02       		.uleb128 0x2
 2190 0256 76       		.byte	0x76
 2191 0257 00       		.sleb128 0
 2192 0258 00       		.byte	0
 2193 0259 00       		.byte	0
 2194 025a 09       		.uleb128 0x9
 2195 025b 8D050000 		.4byte	.LASF40
 2196 025f 01       		.byte	0x1
 2197 0260 DA04     		.2byte	0x4da
 2198 0262 00000000 		.4byte	.LFB19
 2199 0266 DC000000 		.4byte	.LFE19-.LFB19
 2200 026a 01       		.uleb128 0x1
 2201 026b 9C       		.byte	0x9c
 2202 026c D8020000 		.4byte	0x2d8
 2203 0270 0A       		.uleb128 0xa
 2204 0271 80040000 		.4byte	.LASF31
 2205 0275 01       		.byte	0x1
 2206 0276 DA04     		.2byte	0x4da
 2207 0278 72000000 		.4byte	0x72
 2208 027c 26020000 		.4byte	.LLST11
 2209 0280 0F       		.uleb128 0xf
 2210 0281 86000000 		.4byte	.LVL43
ARM GAS  C:\Users\hp\AppData\Local\Temp\ccOWzvx9.s 			page 76


 2211 0285 F7010000 		.4byte	0x1f7
 2212 0289 94020000 		.4byte	0x294
 2213 028d 0D       		.uleb128 0xd
 2214 028e 01       		.uleb128 0x1
 2215 028f 50       		.byte	0x50
 2216 0290 02       		.uleb128 0x2
 2217 0291 08       		.byte	0x8
 2218 0292 44       		.byte	0x44
 2219 0293 00       		.byte	0
 2220 0294 0F       		.uleb128 0xf
 2221 0295 B4000000 		.4byte	.LVL44
 2222 0299 BC090000 		.4byte	0x9bc
 2223 029d AE020000 		.4byte	0x2ae
 2224 02a1 0D       		.uleb128 0xd
 2225 02a2 01       		.uleb128 0x1
 2226 02a3 50       		.byte	0x50
 2227 02a4 02       		.uleb128 0x2
 2228 02a5 75       		.byte	0x75
 2229 02a6 00       		.sleb128 0
 2230 02a7 0D       		.uleb128 0xd
 2231 02a8 01       		.uleb128 0x1
 2232 02a9 51       		.byte	0x51
 2233 02aa 02       		.uleb128 0x2
 2234 02ab 75       		.byte	0x75
 2235 02ac 00       		.sleb128 0
 2236 02ad 00       		.byte	0
 2237 02ae 0F       		.uleb128 0xf
 2238 02af BC000000 		.4byte	.LVL45
 2239 02b3 C7090000 		.4byte	0x9c7
 2240 02b7 C8020000 		.4byte	0x2c8
 2241 02bb 0D       		.uleb128 0xd
 2242 02bc 01       		.uleb128 0x1
 2243 02bd 50       		.byte	0x50
 2244 02be 02       		.uleb128 0x2
 2245 02bf 76       		.byte	0x76
 2246 02c0 00       		.sleb128 0
 2247 02c1 0D       		.uleb128 0xd
 2248 02c2 01       		.uleb128 0x1
 2249 02c3 51       		.byte	0x51
 2250 02c4 02       		.uleb128 0x2
 2251 02c5 75       		.byte	0x75
 2252 02c6 00       		.sleb128 0
 2253 02c7 00       		.byte	0
 2254 02c8 0C       		.uleb128 0xc
 2255 02c9 C4000000 		.4byte	.LVL46
 2256 02cd D2090000 		.4byte	0x9d2
 2257 02d1 0D       		.uleb128 0xd
 2258 02d2 01       		.uleb128 0x1
 2259 02d3 50       		.byte	0x50
 2260 02d4 01       		.uleb128 0x1
 2261 02d5 4D       		.byte	0x4d
 2262 02d6 00       		.byte	0
 2263 02d7 00       		.byte	0
 2264 02d8 10       		.uleb128 0x10
 2265 02d9 33030000 		.4byte	.LASF41
 2266 02dd 01       		.byte	0x1
 2267 02de 5B       		.byte	0x5b
ARM GAS  C:\Users\hp\AppData\Local\Temp\ccOWzvx9.s 			page 77


 2268 02df 00000000 		.4byte	.LFB0
 2269 02e3 C4000000 		.4byte	.LFE0-.LFB0
 2270 02e7 01       		.uleb128 0x1
 2271 02e8 9C       		.byte	0x9c
 2272 02e9 62030000 		.4byte	0x362
 2273 02ed 0F       		.uleb128 0xf
 2274 02ee 16000000 		.4byte	.LVL47
 2275 02f2 DD090000 		.4byte	0x9dd
 2276 02f6 00030000 		.4byte	0x300
 2277 02fa 0D       		.uleb128 0xd
 2278 02fb 01       		.uleb128 0x1
 2279 02fc 50       		.byte	0x50
 2280 02fd 01       		.uleb128 0x1
 2281 02fe 40       		.byte	0x40
 2282 02ff 00       		.byte	0
 2283 0300 0F       		.uleb128 0xf
 2284 0301 1C000000 		.4byte	.LVL48
 2285 0305 E8090000 		.4byte	0x9e8
 2286 0309 13030000 		.4byte	0x313
 2287 030d 0D       		.uleb128 0xd
 2288 030e 01       		.uleb128 0x1
 2289 030f 50       		.byte	0x50
 2290 0310 01       		.uleb128 0x1
 2291 0311 40       		.byte	0x40
 2292 0312 00       		.byte	0
 2293 0313 0F       		.uleb128 0xf
 2294 0314 24000000 		.4byte	.LVL49
 2295 0318 F3090000 		.4byte	0x9f3
 2296 031c 2B030000 		.4byte	0x32b
 2297 0320 0D       		.uleb128 0xd
 2298 0321 01       		.uleb128 0x1
 2299 0322 50       		.byte	0x50
 2300 0323 01       		.uleb128 0x1
 2301 0324 4D       		.byte	0x4d
 2302 0325 0D       		.uleb128 0xd
 2303 0326 01       		.uleb128 0x1
 2304 0327 51       		.byte	0x51
 2305 0328 01       		.uleb128 0x1
 2306 0329 37       		.byte	0x37
 2307 032a 00       		.byte	0
 2308 032b 0F       		.uleb128 0xf
 2309 032c 82000000 		.4byte	.LVL50
 2310 0330 41010000 		.4byte	0x141
 2311 0334 58030000 		.4byte	0x358
 2312 0338 0D       		.uleb128 0xd
 2313 0339 01       		.uleb128 0x1
 2314 033a 50       		.byte	0x50
 2315 033b 01       		.uleb128 0x1
 2316 033c 34       		.byte	0x34
 2317 033d 0D       		.uleb128 0xd
 2318 033e 01       		.uleb128 0x1
 2319 033f 51       		.byte	0x51
 2320 0340 03       		.uleb128 0x3
 2321 0341 0B       		.byte	0xb
 2322 0342 B68D     		.2byte	0x8db6
 2323 0344 0D       		.uleb128 0xd
 2324 0345 01       		.uleb128 0x1
ARM GAS  C:\Users\hp\AppData\Local\Temp\ccOWzvx9.s 			page 78


 2325 0346 52       		.byte	0x52
 2326 0347 03       		.uleb128 0x3
 2327 0348 0A       		.byte	0xa
 2328 0349 487E     		.2byte	0x7e48
 2329 034b 0D       		.uleb128 0xd
 2330 034c 01       		.uleb128 0x1
 2331 034d 53       		.byte	0x53
 2332 034e 01       		.uleb128 0x1
 2333 034f 3F       		.byte	0x3f
 2334 0350 0D       		.uleb128 0xd
 2335 0351 02       		.uleb128 0x2
 2336 0352 7D       		.byte	0x7d
 2337 0353 00       		.sleb128 0
 2338 0354 02       		.uleb128 0x2
 2339 0355 77       		.byte	0x77
 2340 0356 00       		.sleb128 0
 2341 0357 00       		.byte	0
 2342 0358 0E       		.uleb128 0xe
 2343 0359 A2000000 		.4byte	.LVL51
 2344 035d 5A020000 		.4byte	0x25a
 2345 0361 00       		.byte	0
 2346 0362 10       		.uleb128 0x10
 2347 0363 94030000 		.4byte	.LASF42
 2348 0367 01       		.byte	0x1
 2349 0368 B8       		.byte	0xb8
 2350 0369 00000000 		.4byte	.LFB1
 2351 036d D8000000 		.4byte	.LFE1-.LFB1
 2352 0371 01       		.uleb128 0x1
 2353 0372 9C       		.byte	0x9c
 2354 0373 BE030000 		.4byte	0x3be
 2355 0377 11       		.uleb128 0x11
 2356 0378 80040000 		.4byte	.LASF31
 2357 037c 01       		.byte	0x1
 2358 037d BA       		.byte	0xba
 2359 037e 72000000 		.4byte	0x72
 2360 0382 12       		.uleb128 0x12
 2361 0383 1D050000 		.4byte	.LASF39
 2362 0387 01       		.byte	0x1
 2363 0388 BB       		.byte	0xbb
 2364 0389 72000000 		.4byte	0x72
 2365 038d 47020000 		.4byte	.LLST12
 2366 0391 0E       		.uleb128 0xe
 2367 0392 06000000 		.4byte	.LVL52
 2368 0396 9B090000 		.4byte	0x99b
 2369 039a 0F       		.uleb128 0xf
 2370 039b 54000000 		.4byte	.LVL55
 2371 039f A6090000 		.4byte	0x9a6
 2372 03a3 AD030000 		.4byte	0x3ad
 2373 03a7 0D       		.uleb128 0xd
 2374 03a8 01       		.uleb128 0x1
 2375 03a9 50       		.byte	0x50
 2376 03aa 01       		.uleb128 0x1
 2377 03ab 33       		.byte	0x33
 2378 03ac 00       		.byte	0
 2379 03ad 0C       		.uleb128 0xc
 2380 03ae B0000000 		.4byte	.LVL56
 2381 03b2 B1090000 		.4byte	0x9b1
ARM GAS  C:\Users\hp\AppData\Local\Temp\ccOWzvx9.s 			page 79


 2382 03b6 0D       		.uleb128 0xd
 2383 03b7 01       		.uleb128 0x1
 2384 03b8 50       		.byte	0x50
 2385 03b9 02       		.uleb128 0x2
 2386 03ba 76       		.byte	0x76
 2387 03bb 00       		.sleb128 0
 2388 03bc 00       		.byte	0
 2389 03bd 00       		.byte	0
 2390 03be 13       		.uleb128 0x13
 2391 03bf 57010000 		.4byte	.LASF43
 2392 03c3 01       		.byte	0x1
 2393 03c4 4901     		.2byte	0x149
 2394 03c6 00000000 		.4byte	.LFB2
 2395 03ca 28000000 		.4byte	.LFE2-.LFB2
 2396 03ce 01       		.uleb128 0x1
 2397 03cf 9C       		.byte	0x9c
 2398 03d0 E7030000 		.4byte	0x3e7
 2399 03d4 0E       		.uleb128 0xe
 2400 03d5 16000000 		.4byte	.LVL58
 2401 03d9 D8020000 		.4byte	0x2d8
 2402 03dd 0E       		.uleb128 0xe
 2403 03de 20000000 		.4byte	.LVL59
 2404 03e2 62030000 		.4byte	0x362
 2405 03e6 00       		.byte	0
 2406 03e7 13       		.uleb128 0x13
 2407 03e8 20010000 		.4byte	.LASF44
 2408 03ec 01       		.byte	0x1
 2409 03ed 6A01     		.2byte	0x16a
 2410 03ef 00000000 		.4byte	.LFB3
 2411 03f3 E4000000 		.4byte	.LFE3-.LFB3
 2412 03f7 01       		.uleb128 0x1
 2413 03f8 9C       		.byte	0x9c
 2414 03f9 3A040000 		.4byte	0x43a
 2415 03fd 0B       		.uleb128 0xb
 2416 03fe 1D050000 		.4byte	.LASF39
 2417 0402 01       		.byte	0x1
 2418 0403 6C01     		.2byte	0x16c
 2419 0405 72000000 		.4byte	0x72
 2420 0409 5A020000 		.4byte	.LLST13
 2421 040d 0E       		.uleb128 0xe
 2422 040e 06000000 		.4byte	.LVL60
 2423 0412 9B090000 		.4byte	0x99b
 2424 0416 0F       		.uleb128 0xf
 2425 0417 4C000000 		.4byte	.LVL62
 2426 041b A6090000 		.4byte	0x9a6
 2427 041f 29040000 		.4byte	0x429
 2428 0423 0D       		.uleb128 0xd
 2429 0424 01       		.uleb128 0x1
 2430 0425 50       		.byte	0x50
 2431 0426 01       		.uleb128 0x1
 2432 0427 33       		.byte	0x33
 2433 0428 00       		.byte	0
 2434 0429 0C       		.uleb128 0xc
 2435 042a CC000000 		.4byte	.LVL63
 2436 042e B1090000 		.4byte	0x9b1
 2437 0432 0D       		.uleb128 0xd
 2438 0433 01       		.uleb128 0x1
ARM GAS  C:\Users\hp\AppData\Local\Temp\ccOWzvx9.s 			page 80


 2439 0434 50       		.byte	0x50
 2440 0435 02       		.uleb128 0x2
 2441 0436 76       		.byte	0x76
 2442 0437 00       		.sleb128 0
 2443 0438 00       		.byte	0
 2444 0439 00       		.byte	0
 2445 043a 13       		.uleb128 0x13
 2446 043b 51000000 		.4byte	.LASF45
 2447 043f 01       		.byte	0x1
 2448 0440 AD01     		.2byte	0x1ad
 2449 0442 00000000 		.4byte	.LFB4
 2450 0446 18000000 		.4byte	.LFE4-.LFB4
 2451 044a 01       		.uleb128 0x1
 2452 044b 9C       		.byte	0x9c
 2453 044c 71040000 		.4byte	0x471
 2454 0450 0A       		.uleb128 0xa
 2455 0451 1D030000 		.4byte	.LASF46
 2456 0455 01       		.byte	0x1
 2457 0456 AD01     		.2byte	0x1ad
 2458 0458 72000000 		.4byte	0x72
 2459 045c 6D020000 		.4byte	.LLST14
 2460 0460 0B       		.uleb128 0xb
 2461 0461 AB050000 		.4byte	.LASF47
 2462 0465 01       		.byte	0x1
 2463 0466 AF01     		.2byte	0x1af
 2464 0468 72000000 		.4byte	0x72
 2465 046c 8E020000 		.4byte	.LLST15
 2466 0470 00       		.byte	0
 2467 0471 13       		.uleb128 0x13
 2468 0472 96020000 		.4byte	.LASF48
 2469 0476 01       		.byte	0x1
 2470 0477 D101     		.2byte	0x1d1
 2471 0479 00000000 		.4byte	.LFB5
 2472 047d 18000000 		.4byte	.LFE5-.LFB5
 2473 0481 01       		.uleb128 0x1
 2474 0482 9C       		.byte	0x9c
 2475 0483 A8040000 		.4byte	0x4a8
 2476 0487 0A       		.uleb128 0xa
 2477 0488 02030000 		.4byte	.LASF49
 2478 048c 01       		.byte	0x1
 2479 048d D101     		.2byte	0x1d1
 2480 048f 72000000 		.4byte	0x72
 2481 0493 AC020000 		.4byte	.LLST16
 2482 0497 0B       		.uleb128 0xb
 2483 0498 AB050000 		.4byte	.LASF47
 2484 049c 01       		.byte	0x1
 2485 049d D301     		.2byte	0x1d3
 2486 049f 72000000 		.4byte	0x72
 2487 04a3 CD020000 		.4byte	.LLST17
 2488 04a7 00       		.byte	0
 2489 04a8 14       		.uleb128 0x14
 2490 04a9 35050000 		.4byte	.LASF53
 2491 04ad 01       		.byte	0x1
 2492 04ae F901     		.2byte	0x1f9
 2493 04b0 72000000 		.4byte	0x72
 2494 04b4 00000000 		.4byte	.LFB6
 2495 04b8 74000000 		.4byte	.LFE6-.LFB6
ARM GAS  C:\Users\hp\AppData\Local\Temp\ccOWzvx9.s 			page 81


 2496 04bc 01       		.uleb128 0x1
 2497 04bd 9C       		.byte	0x9c
 2498 04be 03050000 		.4byte	0x503
 2499 04c2 0A       		.uleb128 0xa
 2500 04c3 53050000 		.4byte	.LASF50
 2501 04c7 01       		.byte	0x1
 2502 04c8 F901     		.2byte	0x1f9
 2503 04ca BA000000 		.4byte	0xba
 2504 04ce EB020000 		.4byte	.LLST18
 2505 04d2 0B       		.uleb128 0xb
 2506 04d3 AB050000 		.4byte	.LASF47
 2507 04d7 01       		.byte	0x1
 2508 04d8 FB01     		.2byte	0x1fb
 2509 04da 7E000000 		.4byte	0x7e
 2510 04de 19030000 		.4byte	.LLST19
 2511 04e2 0B       		.uleb128 0xb
 2512 04e3 2E050000 		.4byte	.LASF51
 2513 04e7 01       		.byte	0x1
 2514 04e8 FC01     		.2byte	0x1fc
 2515 04ea 72000000 		.4byte	0x72
 2516 04ee 51030000 		.4byte	.LLST20
 2517 04f2 0B       		.uleb128 0xb
 2518 04f3 E6040000 		.4byte	.LASF52
 2519 04f7 01       		.byte	0x1
 2520 04f8 FD01     		.2byte	0x1fd
 2521 04fa BA000000 		.4byte	0xba
 2522 04fe 70030000 		.4byte	.LLST21
 2523 0502 00       		.byte	0
 2524 0503 15       		.uleb128 0x15
 2525 0504 44000000 		.4byte	.LASF54
 2526 0508 01       		.byte	0x1
 2527 0509 2802     		.2byte	0x228
 2528 050b 7E000000 		.4byte	0x7e
 2529 050f 00000000 		.4byte	.LFB7
 2530 0513 24000000 		.4byte	.LFE7-.LFB7
 2531 0517 01       		.uleb128 0x1
 2532 0518 9C       		.byte	0x9c
 2533 0519 3E050000 		.4byte	0x53e
 2534 051d 0B       		.uleb128 0xb
 2535 051e 79040000 		.4byte	.LASF55
 2536 0522 01       		.byte	0x1
 2537 0523 2A02     		.2byte	0x22a
 2538 0525 72000000 		.4byte	0x72
 2539 0529 AF030000 		.4byte	.LLST22
 2540 052d 0B       		.uleb128 0xb
 2541 052e 8C020000 		.4byte	.LASF34
 2542 0532 01       		.byte	0x1
 2543 0533 2B02     		.2byte	0x22b
 2544 0535 7E000000 		.4byte	0x7e
 2545 0539 C2030000 		.4byte	.LLST23
 2546 053d 00       		.byte	0
 2547 053e 16       		.uleb128 0x16
 2548 053f 68010000 		.4byte	.LASF56
 2549 0543 01       		.byte	0x1
 2550 0544 4A02     		.2byte	0x24a
 2551 0546 00000000 		.4byte	.LFB8
 2552 054a 10000000 		.4byte	.LFE8-.LFB8
ARM GAS  C:\Users\hp\AppData\Local\Temp\ccOWzvx9.s 			page 82


 2553 054e 01       		.uleb128 0x1
 2554 054f 9C       		.byte	0x9c
 2555 0550 16       		.uleb128 0x16
 2556 0551 87040000 		.4byte	.LASF57
 2557 0555 01       		.byte	0x1
 2558 0556 6102     		.2byte	0x261
 2559 0558 00000000 		.4byte	.LFB9
 2560 055c 10000000 		.4byte	.LFE9-.LFB9
 2561 0560 01       		.uleb128 0x1
 2562 0561 9C       		.byte	0x9c
 2563 0562 15       		.uleb128 0x15
 2564 0563 EE010000 		.4byte	.LASF58
 2565 0567 01       		.byte	0x1
 2566 0568 8402     		.2byte	0x284
 2567 056a 72000000 		.4byte	0x72
 2568 056e 00000000 		.4byte	.LFB10
 2569 0572 30000000 		.4byte	.LFE10-.LFB10
 2570 0576 01       		.uleb128 0x1
 2571 0577 9C       		.byte	0x9c
 2572 0578 9D050000 		.4byte	0x59d
 2573 057c 0A       		.uleb128 0xa
 2574 057d B5010000 		.4byte	.LASF59
 2575 0581 01       		.byte	0x1
 2576 0582 8402     		.2byte	0x284
 2577 0584 72000000 		.4byte	0x72
 2578 0588 E0030000 		.4byte	.LLST24
 2579 058c 0B       		.uleb128 0xb
 2580 058d 2E050000 		.4byte	.LASF51
 2581 0591 01       		.byte	0x1
 2582 0592 8602     		.2byte	0x286
 2583 0594 72000000 		.4byte	0x72
 2584 0598 01040000 		.4byte	.LLST25
 2585 059c 00       		.byte	0
 2586 059d 15       		.uleb128 0x15
 2587 059e 9C050000 		.4byte	.LASF60
 2588 05a2 01       		.byte	0x1
 2589 05a3 B302     		.2byte	0x2b3
 2590 05a5 96000000 		.4byte	0x96
 2591 05a9 00000000 		.4byte	.LFB11
 2592 05ad 48000000 		.4byte	.LFE11-.LFB11
 2593 05b1 01       		.uleb128 0x1
 2594 05b2 9C       		.byte	0x9c
 2595 05b3 D6050000 		.4byte	0x5d6
 2596 05b7 17       		.uleb128 0x17
 2597 05b8 B2050000 		.4byte	.LASF61
 2598 05bc 01       		.byte	0x1
 2599 05bd B502     		.2byte	0x2b5
 2600 05bf 96000000 		.4byte	0x96
 2601 05c3 01       		.uleb128 0x1
 2602 05c4 50       		.byte	0x50
 2603 05c5 0B       		.uleb128 0xb
 2604 05c6 02030000 		.4byte	.LASF49
 2605 05ca 01       		.byte	0x1
 2606 05cb B602     		.2byte	0x2b6
 2607 05cd 72000000 		.4byte	0x72
 2608 05d1 1F040000 		.4byte	.LLST26
 2609 05d5 00       		.byte	0
ARM GAS  C:\Users\hp\AppData\Local\Temp\ccOWzvx9.s 			page 83


 2610 05d6 15       		.uleb128 0x15
 2611 05d7 14020000 		.4byte	.LASF62
 2612 05db 01       		.byte	0x1
 2613 05dc E902     		.2byte	0x2e9
 2614 05de A2000000 		.4byte	0xa2
 2615 05e2 00000000 		.4byte	.LFB12
 2616 05e6 50000000 		.4byte	.LFE12-.LFB12
 2617 05ea 01       		.uleb128 0x1
 2618 05eb 9C       		.byte	0x9c
 2619 05ec 11060000 		.4byte	0x611
 2620 05f0 0B       		.uleb128 0xb
 2621 05f1 B2050000 		.4byte	.LASF61
 2622 05f5 01       		.byte	0x1
 2623 05f6 EB02     		.2byte	0x2eb
 2624 05f8 7E000000 		.4byte	0x7e
 2625 05fc 3D040000 		.4byte	.LLST27
 2626 0600 0B       		.uleb128 0xb
 2627 0601 02030000 		.4byte	.LASF49
 2628 0605 01       		.byte	0x1
 2629 0606 EC02     		.2byte	0x2ec
 2630 0608 72000000 		.4byte	0x72
 2631 060c 66040000 		.4byte	.LLST28
 2632 0610 00       		.byte	0
 2633 0611 15       		.uleb128 0x15
 2634 0612 3C030000 		.4byte	.LASF63
 2635 0616 01       		.byte	0x1
 2636 0617 2503     		.2byte	0x325
 2637 0619 AE000000 		.4byte	0xae
 2638 061d 00000000 		.4byte	.LFB13
 2639 0621 6C000000 		.4byte	.LFE13-.LFB13
 2640 0625 01       		.uleb128 0x1
 2641 0626 9C       		.byte	0x9c
 2642 0627 4C060000 		.4byte	0x64c
 2643 062b 0B       		.uleb128 0xb
 2644 062c B2050000 		.4byte	.LASF61
 2645 0630 01       		.byte	0x1
 2646 0631 2703     		.2byte	0x327
 2647 0633 8A000000 		.4byte	0x8a
 2648 0637 84040000 		.4byte	.LLST29
 2649 063b 0B       		.uleb128 0xb
 2650 063c 02030000 		.4byte	.LASF49
 2651 0640 01       		.byte	0x1
 2652 0641 2803     		.2byte	0x328
 2653 0643 72000000 		.4byte	0x72
 2654 0647 E5040000 		.4byte	.LLST30
 2655 064b 00       		.byte	0
 2656 064c 13       		.uleb128 0x13
 2657 064d 7E020000 		.4byte	.LASF64
 2658 0651 01       		.byte	0x1
 2659 0652 8203     		.2byte	0x382
 2660 0654 00000000 		.4byte	.LFB14
 2661 0658 0C000000 		.4byte	.LFE14-.LFB14
 2662 065c 01       		.uleb128 0x1
 2663 065d 9C       		.byte	0x9c
 2664 065e 71060000 		.4byte	0x671
 2665 0662 18       		.uleb128 0x18
 2666 0663 EF040000 		.4byte	.LASF65
ARM GAS  C:\Users\hp\AppData\Local\Temp\ccOWzvx9.s 			page 84


 2667 0667 01       		.byte	0x1
 2668 0668 8203     		.2byte	0x382
 2669 066a AE000000 		.4byte	0xae
 2670 066e 01       		.uleb128 0x1
 2671 066f 50       		.byte	0x50
 2672 0670 00       		.byte	0
 2673 0671 13       		.uleb128 0x13
 2674 0672 81050000 		.4byte	.LASF66
 2675 0676 01       		.byte	0x1
 2676 0677 A503     		.2byte	0x3a5
 2677 0679 00000000 		.4byte	.LFB15
 2678 067d 0C000000 		.4byte	.LFE15-.LFB15
 2679 0681 01       		.uleb128 0x1
 2680 0682 9C       		.byte	0x9c
 2681 0683 96060000 		.4byte	0x696
 2682 0687 18       		.uleb128 0x18
 2683 0688 1B000000 		.4byte	.LASF67
 2684 068c 01       		.byte	0x1
 2685 068d A503     		.2byte	0x3a5
 2686 068f AE000000 		.4byte	0xae
 2687 0693 01       		.uleb128 0x1
 2688 0694 50       		.byte	0x50
 2689 0695 00       		.byte	0
 2690 0696 15       		.uleb128 0x15
 2691 0697 79010000 		.4byte	.LASF68
 2692 069b 01       		.byte	0x1
 2693 069c C003     		.2byte	0x3c0
 2694 069e A2000000 		.4byte	0xa2
 2695 06a2 00000000 		.4byte	.LFB16
 2696 06a6 24000000 		.4byte	.LFE16-.LFB16
 2697 06aa 01       		.uleb128 0x1
 2698 06ab 9C       		.byte	0x9c
 2699 06ac CF060000 		.4byte	0x6cf
 2700 06b0 0A       		.uleb128 0xa
 2701 06b1 F6040000 		.4byte	.LASF69
 2702 06b5 01       		.byte	0x1
 2703 06b6 C003     		.2byte	0x3c0
 2704 06b8 AE000000 		.4byte	0xae
 2705 06bc 0E050000 		.4byte	.LLST31
 2706 06c0 17       		.uleb128 0x17
 2707 06c1 A7020000 		.4byte	.LASF70
 2708 06c5 01       		.byte	0x1
 2709 06c6 C303     		.2byte	0x3c3
 2710 06c8 A2000000 		.4byte	0xa2
 2711 06cc 01       		.uleb128 0x1
 2712 06cd 50       		.byte	0x50
 2713 06ce 00       		.byte	0
 2714 06cf 14       		.uleb128 0x14
 2715 06d0 BD010000 		.4byte	.LASF71
 2716 06d4 01       		.byte	0x1
 2717 06d5 FD03     		.2byte	0x3fd
 2718 06d7 BA000000 		.4byte	0xba
 2719 06db 00000000 		.4byte	.LFB17
 2720 06df 28000000 		.4byte	.LFE17-.LFB17
 2721 06e3 01       		.uleb128 0x1
 2722 06e4 9C       		.byte	0x9c
 2723 06e5 08070000 		.4byte	0x708
ARM GAS  C:\Users\hp\AppData\Local\Temp\ccOWzvx9.s 			page 85


 2724 06e9 0A       		.uleb128 0xa
 2725 06ea F6040000 		.4byte	.LASF69
 2726 06ee 01       		.byte	0x1
 2727 06ef FD03     		.2byte	0x3fd
 2728 06f1 AE000000 		.4byte	0xae
 2729 06f5 2C050000 		.4byte	.LLST32
 2730 06f9 17       		.uleb128 0x17
 2731 06fa 46010000 		.4byte	.LASF72
 2732 06fe 01       		.byte	0x1
 2733 06ff 0004     		.2byte	0x400
 2734 0701 BA000000 		.4byte	0xba
 2735 0705 01       		.uleb128 0x1
 2736 0706 50       		.byte	0x50
 2737 0707 00       		.byte	0
 2738 0708 15       		.uleb128 0x15
 2739 0709 00000000 		.4byte	.LASF73
 2740 070d 01       		.byte	0x1
 2741 070e 3F04     		.2byte	0x43f
 2742 0710 AE000000 		.4byte	0xae
 2743 0714 00000000 		.4byte	.LFB18
 2744 0718 74000000 		.4byte	.LFE18-.LFB18
 2745 071c 01       		.uleb128 0x1
 2746 071d 9C       		.byte	0x9c
 2747 071e 73070000 		.4byte	0x773
 2748 0722 0A       		.uleb128 0xa
 2749 0723 F6040000 		.4byte	.LASF69
 2750 0727 01       		.byte	0x1
 2751 0728 3F04     		.2byte	0x43f
 2752 072a AE000000 		.4byte	0xae
 2753 072e 5A050000 		.4byte	.LLST33
 2754 0732 0B       		.uleb128 0xb
 2755 0733 E7010000 		.4byte	.LASF74
 2756 0737 01       		.byte	0x1
 2757 0738 4204     		.2byte	0x442
 2758 073a AE000000 		.4byte	0xae
 2759 073e 7B050000 		.4byte	.LLST34
 2760 0742 0B       		.uleb128 0xb
 2761 0743 68040000 		.4byte	.LASF75
 2762 0747 01       		.byte	0x1
 2763 0748 4304     		.2byte	0x443
 2764 074a AE000000 		.4byte	0xae
 2765 074e 9E050000 		.4byte	.LLST35
 2766 0752 0B       		.uleb128 0xb
 2767 0753 6E040000 		.4byte	.LASF76
 2768 0757 01       		.byte	0x1
 2769 0758 4404     		.2byte	0x444
 2770 075a AE000000 		.4byte	0xae
 2771 075e C1050000 		.4byte	.LLST36
 2772 0762 0B       		.uleb128 0xb
 2773 0763 35040000 		.4byte	.LASF30
 2774 0767 01       		.byte	0x1
 2775 0768 4504     		.2byte	0x445
 2776 076a 72000000 		.4byte	0x72
 2777 076e E0050000 		.4byte	.LLST37
 2778 0772 00       		.byte	0
 2779 0773 13       		.uleb128 0x13
 2780 0774 40040000 		.4byte	.LASF77
ARM GAS  C:\Users\hp\AppData\Local\Temp\ccOWzvx9.s 			page 86


 2781 0778 01       		.byte	0x1
 2782 0779 1006     		.2byte	0x610
 2783 077b 00000000 		.4byte	.LFB20
 2784 077f 60000000 		.4byte	.LFE20-.LFB20
 2785 0783 01       		.uleb128 0x1
 2786 0784 9C       		.byte	0x9c
 2787 0785 E8070000 		.4byte	0x7e8
 2788 0789 0A       		.uleb128 0xa
 2789 078a 80040000 		.4byte	.LASF31
 2790 078e 01       		.byte	0x1
 2791 078f 1006     		.2byte	0x610
 2792 0791 72000000 		.4byte	0x72
 2793 0795 F3050000 		.4byte	.LLST38
 2794 0799 0A       		.uleb128 0xa
 2795 079a DE040000 		.4byte	.LASF78
 2796 079e 01       		.byte	0x1
 2797 079f 1006     		.2byte	0x610
 2798 07a1 72000000 		.4byte	0x72
 2799 07a5 2D060000 		.4byte	.LLST39
 2800 07a9 0E       		.uleb128 0xe
 2801 07aa 1E000000 		.4byte	.LVL149
 2802 07ae E7030000 		.4byte	0x3e7
 2803 07b2 0F       		.uleb128 0xf
 2804 07b3 24000000 		.4byte	.LVL150
 2805 07b7 5A020000 		.4byte	0x25a
 2806 07bb C6070000 		.4byte	0x7c6
 2807 07bf 0D       		.uleb128 0xd
 2808 07c0 01       		.uleb128 0x1
 2809 07c1 50       		.byte	0x50
 2810 07c2 02       		.uleb128 0x2
 2811 07c3 74       		.byte	0x74
 2812 07c4 00       		.sleb128 0
 2813 07c5 00       		.byte	0
 2814 07c6 0E       		.uleb128 0xe
 2815 07c7 42000000 		.4byte	.LVL151
 2816 07cb BE030000 		.4byte	0x3be
 2817 07cf 0E       		.uleb128 0xe
 2818 07d0 46000000 		.4byte	.LVL152
 2819 07d4 3E050000 		.4byte	0x53e
 2820 07d8 0C       		.uleb128 0xc
 2821 07d9 4E000000 		.4byte	.LVL155
 2822 07dd 90090000 		.4byte	0x990
 2823 07e1 0D       		.uleb128 0xd
 2824 07e2 01       		.uleb128 0x1
 2825 07e3 50       		.byte	0x50
 2826 07e4 01       		.uleb128 0x1
 2827 07e5 30       		.byte	0x30
 2828 07e6 00       		.byte	0
 2829 07e7 00       		.byte	0
 2830 07e8 15       		.uleb128 0x15
 2831 07e9 D0010000 		.4byte	.LASF79
 2832 07ed 01       		.byte	0x1
 2833 07ee E206     		.2byte	0x6e2
 2834 07f0 96000000 		.4byte	0x96
 2835 07f4 00000000 		.4byte	.LFB23
 2836 07f8 28000000 		.4byte	.LFE23-.LFB23
 2837 07fc 01       		.uleb128 0x1
ARM GAS  C:\Users\hp\AppData\Local\Temp\ccOWzvx9.s 			page 87


 2838 07fd 9C       		.byte	0x9c
 2839 07fe 41080000 		.4byte	0x841
 2840 0802 0B       		.uleb128 0xb
 2841 0803 B2050000 		.4byte	.LASF61
 2842 0807 01       		.byte	0x1
 2843 0808 E406     		.2byte	0x6e4
 2844 080a 96000000 		.4byte	0x96
 2845 080e 67060000 		.4byte	.LLST40
 2846 0812 0E       		.uleb128 0xe
 2847 0813 10000000 		.4byte	.LVL156
 2848 0817 3E050000 		.4byte	0x53e
 2849 081b 0F       		.uleb128 0xf
 2850 081c 16000000 		.4byte	.LVL157
 2851 0820 62050000 		.4byte	0x562
 2852 0824 2E080000 		.4byte	0x82e
 2853 0828 0D       		.uleb128 0xd
 2854 0829 01       		.uleb128 0x1
 2855 082a 50       		.byte	0x50
 2856 082b 01       		.uleb128 0x1
 2857 082c 30       		.byte	0x30
 2858 082d 00       		.byte	0
 2859 082e 0E       		.uleb128 0xe
 2860 082f 1A000000 		.4byte	.LVL158
 2861 0833 9D050000 		.4byte	0x59d
 2862 0837 0E       		.uleb128 0xe
 2863 0838 20000000 		.4byte	.LVL160
 2864 083c 50050000 		.4byte	0x550
 2865 0840 00       		.byte	0
 2866 0841 15       		.uleb128 0x15
 2867 0842 22030000 		.4byte	.LASF80
 2868 0846 01       		.byte	0x1
 2869 0847 0307     		.2byte	0x703
 2870 0849 A2000000 		.4byte	0xa2
 2871 084d 00000000 		.4byte	.LFB24
 2872 0851 28000000 		.4byte	.LFE24-.LFB24
 2873 0855 01       		.uleb128 0x1
 2874 0856 9C       		.byte	0x9c
 2875 0857 9A080000 		.4byte	0x89a
 2876 085b 0B       		.uleb128 0xb
 2877 085c B2050000 		.4byte	.LASF61
 2878 0860 01       		.byte	0x1
 2879 0861 0507     		.2byte	0x705
 2880 0863 A2000000 		.4byte	0xa2
 2881 0867 7A060000 		.4byte	.LLST41
 2882 086b 0E       		.uleb128 0xe
 2883 086c 10000000 		.4byte	.LVL162
 2884 0870 3E050000 		.4byte	0x53e
 2885 0874 0F       		.uleb128 0xf
 2886 0875 16000000 		.4byte	.LVL163
 2887 0879 62050000 		.4byte	0x562
 2888 087d 87080000 		.4byte	0x887
 2889 0881 0D       		.uleb128 0xd
 2890 0882 01       		.uleb128 0x1
 2891 0883 50       		.byte	0x50
 2892 0884 01       		.uleb128 0x1
 2893 0885 30       		.byte	0x30
 2894 0886 00       		.byte	0
ARM GAS  C:\Users\hp\AppData\Local\Temp\ccOWzvx9.s 			page 88


 2895 0887 0E       		.uleb128 0xe
 2896 0888 1A000000 		.4byte	.LVL164
 2897 088c D6050000 		.4byte	0x5d6
 2898 0890 0E       		.uleb128 0xe
 2899 0891 20000000 		.4byte	.LVL166
 2900 0895 50050000 		.4byte	0x550
 2901 0899 00       		.byte	0
 2902 089a 15       		.uleb128 0x15
 2903 089b 00050000 		.4byte	.LASF81
 2904 089f 01       		.byte	0x1
 2905 08a0 2407     		.2byte	0x724
 2906 08a2 AE000000 		.4byte	0xae
 2907 08a6 00000000 		.4byte	.LFB25
 2908 08aa 28000000 		.4byte	.LFE25-.LFB25
 2909 08ae 01       		.uleb128 0x1
 2910 08af 9C       		.byte	0x9c
 2911 08b0 F3080000 		.4byte	0x8f3
 2912 08b4 0B       		.uleb128 0xb
 2913 08b5 B2050000 		.4byte	.LASF61
 2914 08b9 01       		.byte	0x1
 2915 08ba 2607     		.2byte	0x726
 2916 08bc AE000000 		.4byte	0xae
 2917 08c0 8D060000 		.4byte	.LLST42
 2918 08c4 0E       		.uleb128 0xe
 2919 08c5 10000000 		.4byte	.LVL168
 2920 08c9 3E050000 		.4byte	0x53e
 2921 08cd 0F       		.uleb128 0xf
 2922 08ce 16000000 		.4byte	.LVL169
 2923 08d2 62050000 		.4byte	0x562
 2924 08d6 E0080000 		.4byte	0x8e0
 2925 08da 0D       		.uleb128 0xd
 2926 08db 01       		.uleb128 0x1
 2927 08dc 50       		.byte	0x50
 2928 08dd 01       		.uleb128 0x1
 2929 08de 30       		.byte	0x30
 2930 08df 00       		.byte	0
 2931 08e0 0E       		.uleb128 0xe
 2932 08e1 1A000000 		.4byte	.LVL170
 2933 08e5 11060000 		.4byte	0x611
 2934 08e9 0E       		.uleb128 0xe
 2935 08ea 20000000 		.4byte	.LVL172
 2936 08ee 50050000 		.4byte	0x550
 2937 08f2 00       		.byte	0
 2938 08f3 19       		.uleb128 0x19
 2939 08f4 36010000 		.4byte	0x136
 2940 08f8 03090000 		.4byte	0x903
 2941 08fc 1A       		.uleb128 0x1a
 2942 08fd 0E010000 		.4byte	0x10e
 2943 0901 00       		.byte	0
 2944 0902 00       		.byte	0
 2945 0903 1B       		.uleb128 0x1b
 2946 0904 A3000000 		.4byte	.LASF82
 2947 0908 01       		.byte	0x1
 2948 0909 3D       		.byte	0x3d
 2949 090a F3080000 		.4byte	0x8f3
 2950 090e 05       		.uleb128 0x5
 2951 090f 03       		.byte	0x3
ARM GAS  C:\Users\hp\AppData\Local\Temp\ccOWzvx9.s 			page 89


 2952 0910 00000000 		.4byte	adc_gcor
 2953 0914 1C       		.uleb128 0x1c
 2954 0915 7E030000 		.4byte	.LASF83
 2955 0919 01       		.byte	0x1
 2956 091a 2C       		.byte	0x2c
 2957 091b 72000000 		.4byte	0x72
 2958 091f 05       		.uleb128 0x5
 2959 0920 03       		.byte	0x3
 2960 0921 00000000 		.4byte	adc_initVar
 2961 0925 1C       		.uleb128 0x1c
 2962 0926 F5020000 		.4byte	.LASF84
 2963 092a 01       		.byte	0x1
 2964 092b 24       		.byte	0x24
 2965 092c E0000000 		.4byte	0xe0
 2966 0930 05       		.uleb128 0x5
 2967 0931 03       		.byte	0x3
 2968 0932 00000000 		.4byte	adc_convDone
 2969 0936 1C       		.uleb128 0x1c
 2970 0937 E2020000 		.4byte	.LASF85
 2971 093b 01       		.byte	0x1
 2972 093c 29       		.byte	0x29
 2973 093d E0000000 		.4byte	0xe0
 2974 0941 05       		.uleb128 0x5
 2975 0942 03       		.byte	0x3
 2976 0943 00000000 		.4byte	adc_stopConversion
 2977 0947 1C       		.uleb128 0x1c
 2978 0948 6D020000 		.4byte	.LASF86
 2979 094c 01       		.byte	0x1
 2980 094d 2F       		.byte	0x2f
 2981 094e E0000000 		.4byte	0xe0
 2982 0952 05       		.uleb128 0x5
 2983 0953 03       		.byte	0x3
 2984 0954 00000000 		.4byte	adc_started
 2985 0958 1C       		.uleb128 0x1c
 2986 0959 CB020000 		.4byte	.LASF87
 2987 095d 01       		.byte	0x1
 2988 095e 32       		.byte	0x32
 2989 095f E0000000 		.4byte	0xe0
 2990 0963 05       		.uleb128 0x5
 2991 0964 03       		.byte	0x3
 2992 0965 00000000 		.4byte	adc_Config
 2993 0969 1C       		.uleb128 0x1c
 2994 096a 4C010000 		.4byte	.LASF88
 2995 096e 01       		.byte	0x1
 2996 096f 34       		.byte	0x34
 2997 0970 7A090000 		.4byte	0x97a
 2998 0974 05       		.uleb128 0x5
 2999 0975 03       		.byte	0x3
 3000 0976 00000000 		.4byte	adc_Offset
 3001 097a 05       		.uleb128 0x5
 3002 097b AE000000 		.4byte	0xae
 3003 097f 1C       		.uleb128 0x1c
 3004 0980 0B050000 		.4byte	.LASF89
 3005 0984 01       		.byte	0x1
 3006 0985 35       		.byte	0x35
 3007 0986 7A090000 		.4byte	0x97a
 3008 098a 05       		.uleb128 0x5
ARM GAS  C:\Users\hp\AppData\Local\Temp\ccOWzvx9.s 			page 90


 3009 098b 03       		.byte	0x3
 3010 098c 00000000 		.4byte	adc_CountsPerVolt
 3011 0990 1D       		.uleb128 0x1d
 3012 0991 69030000 		.4byte	.LASF90
 3013 0995 69030000 		.4byte	.LASF90
 3014 0999 04       		.byte	0x4
 3015 099a 7F       		.byte	0x7f
 3016 099b 1D       		.uleb128 0x1d
 3017 099c 24020000 		.4byte	.LASF91
 3018 09a0 24020000 		.4byte	.LASF91
 3019 09a4 04       		.byte	0x4
 3020 09a5 7D       		.byte	0x7d
 3021 09a6 1D       		.uleb128 0x1d
 3022 09a7 35010000 		.4byte	.LASF92
 3023 09ab 35010000 		.4byte	.LASF92
 3024 09af 04       		.byte	0x4
 3025 09b0 77       		.byte	0x77
 3026 09b1 1D       		.uleb128 0x1d
 3027 09b2 23000000 		.4byte	.LASF93
 3028 09b6 23000000 		.4byte	.LASF93
 3029 09ba 04       		.byte	0x4
 3030 09bb 7E       		.byte	0x7e
 3031 09bc 1D       		.uleb128 0x1d
 3032 09bd 8D010000 		.4byte	.LASF94
 3033 09c1 8D010000 		.4byte	.LASF94
 3034 09c5 05       		.byte	0x5
 3035 09c6 2F       		.byte	0x2f
 3036 09c7 1D       		.uleb128 0x1d
 3037 09c8 7F000000 		.4byte	.LASF95
 3038 09cc 7F000000 		.4byte	.LASF95
 3039 09d0 06       		.byte	0x6
 3040 09d1 2F       		.byte	0x2f
 3041 09d2 1D       		.uleb128 0x1d
 3042 09d3 D3000000 		.4byte	.LASF96
 3043 09d7 D3000000 		.4byte	.LASF96
 3044 09db 04       		.byte	0x4
 3045 09dc 88       		.byte	0x88
 3046 09dd 1D       		.uleb128 0x1d
 3047 09de 4E020000 		.4byte	.LASF97
 3048 09e2 4E020000 		.4byte	.LASF97
 3049 09e6 05       		.byte	0x5
 3050 09e7 32       		.byte	0x32
 3051 09e8 1D       		.uleb128 0x1d
 3052 09e9 63000000 		.4byte	.LASF98
 3053 09ed 63000000 		.4byte	.LASF98
 3054 09f1 06       		.byte	0x6
 3055 09f2 32       		.byte	0x32
 3056 09f3 1D       		.uleb128 0x1d
 3057 09f4 0C030000 		.4byte	.LASF99
 3058 09f8 0C030000 		.4byte	.LASF99
 3059 09fc 04       		.byte	0x4
 3060 09fd 8B       		.byte	0x8b
 3061 09fe 00       		.byte	0
 3062              		.section	.debug_abbrev,"",%progbits
 3063              	.Ldebug_abbrev0:
 3064 0000 01       		.uleb128 0x1
 3065 0001 11       		.uleb128 0x11
ARM GAS  C:\Users\hp\AppData\Local\Temp\ccOWzvx9.s 			page 91


 3066 0002 01       		.byte	0x1
 3067 0003 25       		.uleb128 0x25
 3068 0004 0E       		.uleb128 0xe
 3069 0005 13       		.uleb128 0x13
 3070 0006 0B       		.uleb128 0xb
 3071 0007 03       		.uleb128 0x3
 3072 0008 0E       		.uleb128 0xe
 3073 0009 1B       		.uleb128 0x1b
 3074 000a 0E       		.uleb128 0xe
 3075 000b 55       		.uleb128 0x55
 3076 000c 17       		.uleb128 0x17
 3077 000d 11       		.uleb128 0x11
 3078 000e 01       		.uleb128 0x1
 3079 000f 10       		.uleb128 0x10
 3080 0010 17       		.uleb128 0x17
 3081 0011 00       		.byte	0
 3082 0012 00       		.byte	0
 3083 0013 02       		.uleb128 0x2
 3084 0014 24       		.uleb128 0x24
 3085 0015 00       		.byte	0
 3086 0016 0B       		.uleb128 0xb
 3087 0017 0B       		.uleb128 0xb
 3088 0018 3E       		.uleb128 0x3e
 3089 0019 0B       		.uleb128 0xb
 3090 001a 03       		.uleb128 0x3
 3091 001b 0E       		.uleb128 0xe
 3092 001c 00       		.byte	0
 3093 001d 00       		.byte	0
 3094 001e 03       		.uleb128 0x3
 3095 001f 24       		.uleb128 0x24
 3096 0020 00       		.byte	0
 3097 0021 0B       		.uleb128 0xb
 3098 0022 0B       		.uleb128 0xb
 3099 0023 3E       		.uleb128 0x3e
 3100 0024 0B       		.uleb128 0xb
 3101 0025 03       		.uleb128 0x3
 3102 0026 08       		.uleb128 0x8
 3103 0027 00       		.byte	0
 3104 0028 00       		.byte	0
 3105 0029 04       		.uleb128 0x4
 3106 002a 16       		.uleb128 0x16
 3107 002b 00       		.byte	0
 3108 002c 03       		.uleb128 0x3
 3109 002d 0E       		.uleb128 0xe
 3110 002e 3A       		.uleb128 0x3a
 3111 002f 0B       		.uleb128 0xb
 3112 0030 3B       		.uleb128 0x3b
 3113 0031 05       		.uleb128 0x5
 3114 0032 49       		.uleb128 0x49
 3115 0033 13       		.uleb128 0x13
 3116 0034 00       		.byte	0
 3117 0035 00       		.byte	0
 3118 0036 05       		.uleb128 0x5
 3119 0037 35       		.uleb128 0x35
 3120 0038 00       		.byte	0
 3121 0039 49       		.uleb128 0x49
 3122 003a 13       		.uleb128 0x13
ARM GAS  C:\Users\hp\AppData\Local\Temp\ccOWzvx9.s 			page 92


 3123 003b 00       		.byte	0
 3124 003c 00       		.byte	0
 3125 003d 06       		.uleb128 0x6
 3126 003e 13       		.uleb128 0x13
 3127 003f 01       		.byte	0x1
 3128 0040 0B       		.uleb128 0xb
 3129 0041 0B       		.uleb128 0xb
 3130 0042 3A       		.uleb128 0x3a
 3131 0043 0B       		.uleb128 0xb
 3132 0044 3B       		.uleb128 0x3b
 3133 0045 0B       		.uleb128 0xb
 3134 0046 01       		.uleb128 0x1
 3135 0047 13       		.uleb128 0x13
 3136 0048 00       		.byte	0
 3137 0049 00       		.byte	0
 3138 004a 07       		.uleb128 0x7
 3139 004b 0D       		.uleb128 0xd
 3140 004c 00       		.byte	0
 3141 004d 03       		.uleb128 0x3
 3142 004e 0E       		.uleb128 0xe
 3143 004f 3A       		.uleb128 0x3a
 3144 0050 0B       		.uleb128 0xb
 3145 0051 3B       		.uleb128 0x3b
 3146 0052 0B       		.uleb128 0xb
 3147 0053 49       		.uleb128 0x49
 3148 0054 13       		.uleb128 0x13
 3149 0055 38       		.uleb128 0x38
 3150 0056 0B       		.uleb128 0xb
 3151 0057 00       		.byte	0
 3152 0058 00       		.byte	0
 3153 0059 08       		.uleb128 0x8
 3154 005a 16       		.uleb128 0x16
 3155 005b 00       		.byte	0
 3156 005c 03       		.uleb128 0x3
 3157 005d 0E       		.uleb128 0xe
 3158 005e 3A       		.uleb128 0x3a
 3159 005f 0B       		.uleb128 0xb
 3160 0060 3B       		.uleb128 0x3b
 3161 0061 0B       		.uleb128 0xb
 3162 0062 49       		.uleb128 0x49
 3163 0063 13       		.uleb128 0x13
 3164 0064 00       		.byte	0
 3165 0065 00       		.byte	0
 3166 0066 09       		.uleb128 0x9
 3167 0067 2E       		.uleb128 0x2e
 3168 0068 01       		.byte	0x1
 3169 0069 03       		.uleb128 0x3
 3170 006a 0E       		.uleb128 0xe
 3171 006b 3A       		.uleb128 0x3a
 3172 006c 0B       		.uleb128 0xb
 3173 006d 3B       		.uleb128 0x3b
 3174 006e 05       		.uleb128 0x5
 3175 006f 27       		.uleb128 0x27
 3176 0070 19       		.uleb128 0x19
 3177 0071 11       		.uleb128 0x11
 3178 0072 01       		.uleb128 0x1
 3179 0073 12       		.uleb128 0x12
ARM GAS  C:\Users\hp\AppData\Local\Temp\ccOWzvx9.s 			page 93


 3180 0074 06       		.uleb128 0x6
 3181 0075 40       		.uleb128 0x40
 3182 0076 18       		.uleb128 0x18
 3183 0077 9742     		.uleb128 0x2117
 3184 0079 19       		.uleb128 0x19
 3185 007a 01       		.uleb128 0x1
 3186 007b 13       		.uleb128 0x13
 3187 007c 00       		.byte	0
 3188 007d 00       		.byte	0
 3189 007e 0A       		.uleb128 0xa
 3190 007f 05       		.uleb128 0x5
 3191 0080 00       		.byte	0
 3192 0081 03       		.uleb128 0x3
 3193 0082 0E       		.uleb128 0xe
 3194 0083 3A       		.uleb128 0x3a
 3195 0084 0B       		.uleb128 0xb
 3196 0085 3B       		.uleb128 0x3b
 3197 0086 05       		.uleb128 0x5
 3198 0087 49       		.uleb128 0x49
 3199 0088 13       		.uleb128 0x13
 3200 0089 02       		.uleb128 0x2
 3201 008a 17       		.uleb128 0x17
 3202 008b 00       		.byte	0
 3203 008c 00       		.byte	0
 3204 008d 0B       		.uleb128 0xb
 3205 008e 34       		.uleb128 0x34
 3206 008f 00       		.byte	0
 3207 0090 03       		.uleb128 0x3
 3208 0091 0E       		.uleb128 0xe
 3209 0092 3A       		.uleb128 0x3a
 3210 0093 0B       		.uleb128 0xb
 3211 0094 3B       		.uleb128 0x3b
 3212 0095 05       		.uleb128 0x5
 3213 0096 49       		.uleb128 0x49
 3214 0097 13       		.uleb128 0x13
 3215 0098 02       		.uleb128 0x2
 3216 0099 17       		.uleb128 0x17
 3217 009a 00       		.byte	0
 3218 009b 00       		.byte	0
 3219 009c 0C       		.uleb128 0xc
 3220 009d 898201   		.uleb128 0x4109
 3221 00a0 01       		.byte	0x1
 3222 00a1 11       		.uleb128 0x11
 3223 00a2 01       		.uleb128 0x1
 3224 00a3 31       		.uleb128 0x31
 3225 00a4 13       		.uleb128 0x13
 3226 00a5 00       		.byte	0
 3227 00a6 00       		.byte	0
 3228 00a7 0D       		.uleb128 0xd
 3229 00a8 8A8201   		.uleb128 0x410a
 3230 00ab 00       		.byte	0
 3231 00ac 02       		.uleb128 0x2
 3232 00ad 18       		.uleb128 0x18
 3233 00ae 9142     		.uleb128 0x2111
 3234 00b0 18       		.uleb128 0x18
 3235 00b1 00       		.byte	0
 3236 00b2 00       		.byte	0
ARM GAS  C:\Users\hp\AppData\Local\Temp\ccOWzvx9.s 			page 94


 3237 00b3 0E       		.uleb128 0xe
 3238 00b4 898201   		.uleb128 0x4109
 3239 00b7 00       		.byte	0
 3240 00b8 11       		.uleb128 0x11
 3241 00b9 01       		.uleb128 0x1
 3242 00ba 31       		.uleb128 0x31
 3243 00bb 13       		.uleb128 0x13
 3244 00bc 00       		.byte	0
 3245 00bd 00       		.byte	0
 3246 00be 0F       		.uleb128 0xf
 3247 00bf 898201   		.uleb128 0x4109
 3248 00c2 01       		.byte	0x1
 3249 00c3 11       		.uleb128 0x11
 3250 00c4 01       		.uleb128 0x1
 3251 00c5 31       		.uleb128 0x31
 3252 00c6 13       		.uleb128 0x13
 3253 00c7 01       		.uleb128 0x1
 3254 00c8 13       		.uleb128 0x13
 3255 00c9 00       		.byte	0
 3256 00ca 00       		.byte	0
 3257 00cb 10       		.uleb128 0x10
 3258 00cc 2E       		.uleb128 0x2e
 3259 00cd 01       		.byte	0x1
 3260 00ce 3F       		.uleb128 0x3f
 3261 00cf 19       		.uleb128 0x19
 3262 00d0 03       		.uleb128 0x3
 3263 00d1 0E       		.uleb128 0xe
 3264 00d2 3A       		.uleb128 0x3a
 3265 00d3 0B       		.uleb128 0xb
 3266 00d4 3B       		.uleb128 0x3b
 3267 00d5 0B       		.uleb128 0xb
 3268 00d6 27       		.uleb128 0x27
 3269 00d7 19       		.uleb128 0x19
 3270 00d8 11       		.uleb128 0x11
 3271 00d9 01       		.uleb128 0x1
 3272 00da 12       		.uleb128 0x12
 3273 00db 06       		.uleb128 0x6
 3274 00dc 40       		.uleb128 0x40
 3275 00dd 18       		.uleb128 0x18
 3276 00de 9742     		.uleb128 0x2117
 3277 00e0 19       		.uleb128 0x19
 3278 00e1 01       		.uleb128 0x1
 3279 00e2 13       		.uleb128 0x13
 3280 00e3 00       		.byte	0
 3281 00e4 00       		.byte	0
 3282 00e5 11       		.uleb128 0x11
 3283 00e6 34       		.uleb128 0x34
 3284 00e7 00       		.byte	0
 3285 00e8 03       		.uleb128 0x3
 3286 00e9 0E       		.uleb128 0xe
 3287 00ea 3A       		.uleb128 0x3a
 3288 00eb 0B       		.uleb128 0xb
 3289 00ec 3B       		.uleb128 0x3b
 3290 00ed 0B       		.uleb128 0xb
 3291 00ee 49       		.uleb128 0x49
 3292 00ef 13       		.uleb128 0x13
 3293 00f0 00       		.byte	0
ARM GAS  C:\Users\hp\AppData\Local\Temp\ccOWzvx9.s 			page 95


 3294 00f1 00       		.byte	0
 3295 00f2 12       		.uleb128 0x12
 3296 00f3 34       		.uleb128 0x34
 3297 00f4 00       		.byte	0
 3298 00f5 03       		.uleb128 0x3
 3299 00f6 0E       		.uleb128 0xe
 3300 00f7 3A       		.uleb128 0x3a
 3301 00f8 0B       		.uleb128 0xb
 3302 00f9 3B       		.uleb128 0x3b
 3303 00fa 0B       		.uleb128 0xb
 3304 00fb 49       		.uleb128 0x49
 3305 00fc 13       		.uleb128 0x13
 3306 00fd 02       		.uleb128 0x2
 3307 00fe 17       		.uleb128 0x17
 3308 00ff 00       		.byte	0
 3309 0100 00       		.byte	0
 3310 0101 13       		.uleb128 0x13
 3311 0102 2E       		.uleb128 0x2e
 3312 0103 01       		.byte	0x1
 3313 0104 3F       		.uleb128 0x3f
 3314 0105 19       		.uleb128 0x19
 3315 0106 03       		.uleb128 0x3
 3316 0107 0E       		.uleb128 0xe
 3317 0108 3A       		.uleb128 0x3a
 3318 0109 0B       		.uleb128 0xb
 3319 010a 3B       		.uleb128 0x3b
 3320 010b 05       		.uleb128 0x5
 3321 010c 27       		.uleb128 0x27
 3322 010d 19       		.uleb128 0x19
 3323 010e 11       		.uleb128 0x11
 3324 010f 01       		.uleb128 0x1
 3325 0110 12       		.uleb128 0x12
 3326 0111 06       		.uleb128 0x6
 3327 0112 40       		.uleb128 0x40
 3328 0113 18       		.uleb128 0x18
 3329 0114 9742     		.uleb128 0x2117
 3330 0116 19       		.uleb128 0x19
 3331 0117 01       		.uleb128 0x1
 3332 0118 13       		.uleb128 0x13
 3333 0119 00       		.byte	0
 3334 011a 00       		.byte	0
 3335 011b 14       		.uleb128 0x14
 3336 011c 2E       		.uleb128 0x2e
 3337 011d 01       		.byte	0x1
 3338 011e 3F       		.uleb128 0x3f
 3339 011f 19       		.uleb128 0x19
 3340 0120 03       		.uleb128 0x3
 3341 0121 0E       		.uleb128 0xe
 3342 0122 3A       		.uleb128 0x3a
 3343 0123 0B       		.uleb128 0xb
 3344 0124 3B       		.uleb128 0x3b
 3345 0125 05       		.uleb128 0x5
 3346 0126 27       		.uleb128 0x27
 3347 0127 19       		.uleb128 0x19
 3348 0128 49       		.uleb128 0x49
 3349 0129 13       		.uleb128 0x13
 3350 012a 11       		.uleb128 0x11
ARM GAS  C:\Users\hp\AppData\Local\Temp\ccOWzvx9.s 			page 96


 3351 012b 01       		.uleb128 0x1
 3352 012c 12       		.uleb128 0x12
 3353 012d 06       		.uleb128 0x6
 3354 012e 40       		.uleb128 0x40
 3355 012f 18       		.uleb128 0x18
 3356 0130 9642     		.uleb128 0x2116
 3357 0132 19       		.uleb128 0x19
 3358 0133 01       		.uleb128 0x1
 3359 0134 13       		.uleb128 0x13
 3360 0135 00       		.byte	0
 3361 0136 00       		.byte	0
 3362 0137 15       		.uleb128 0x15
 3363 0138 2E       		.uleb128 0x2e
 3364 0139 01       		.byte	0x1
 3365 013a 3F       		.uleb128 0x3f
 3366 013b 19       		.uleb128 0x19
 3367 013c 03       		.uleb128 0x3
 3368 013d 0E       		.uleb128 0xe
 3369 013e 3A       		.uleb128 0x3a
 3370 013f 0B       		.uleb128 0xb
 3371 0140 3B       		.uleb128 0x3b
 3372 0141 05       		.uleb128 0x5
 3373 0142 27       		.uleb128 0x27
 3374 0143 19       		.uleb128 0x19
 3375 0144 49       		.uleb128 0x49
 3376 0145 13       		.uleb128 0x13
 3377 0146 11       		.uleb128 0x11
 3378 0147 01       		.uleb128 0x1
 3379 0148 12       		.uleb128 0x12
 3380 0149 06       		.uleb128 0x6
 3381 014a 40       		.uleb128 0x40
 3382 014b 18       		.uleb128 0x18
 3383 014c 9742     		.uleb128 0x2117
 3384 014e 19       		.uleb128 0x19
 3385 014f 01       		.uleb128 0x1
 3386 0150 13       		.uleb128 0x13
 3387 0151 00       		.byte	0
 3388 0152 00       		.byte	0
 3389 0153 16       		.uleb128 0x16
 3390 0154 2E       		.uleb128 0x2e
 3391 0155 00       		.byte	0
 3392 0156 3F       		.uleb128 0x3f
 3393 0157 19       		.uleb128 0x19
 3394 0158 03       		.uleb128 0x3
 3395 0159 0E       		.uleb128 0xe
 3396 015a 3A       		.uleb128 0x3a
 3397 015b 0B       		.uleb128 0xb
 3398 015c 3B       		.uleb128 0x3b
 3399 015d 05       		.uleb128 0x5
 3400 015e 27       		.uleb128 0x27
 3401 015f 19       		.uleb128 0x19
 3402 0160 11       		.uleb128 0x11
 3403 0161 01       		.uleb128 0x1
 3404 0162 12       		.uleb128 0x12
 3405 0163 06       		.uleb128 0x6
 3406 0164 40       		.uleb128 0x40
 3407 0165 18       		.uleb128 0x18
ARM GAS  C:\Users\hp\AppData\Local\Temp\ccOWzvx9.s 			page 97


 3408 0166 9742     		.uleb128 0x2117
 3409 0168 19       		.uleb128 0x19
 3410 0169 00       		.byte	0
 3411 016a 00       		.byte	0
 3412 016b 17       		.uleb128 0x17
 3413 016c 34       		.uleb128 0x34
 3414 016d 00       		.byte	0
 3415 016e 03       		.uleb128 0x3
 3416 016f 0E       		.uleb128 0xe
 3417 0170 3A       		.uleb128 0x3a
 3418 0171 0B       		.uleb128 0xb
 3419 0172 3B       		.uleb128 0x3b
 3420 0173 05       		.uleb128 0x5
 3421 0174 49       		.uleb128 0x49
 3422 0175 13       		.uleb128 0x13
 3423 0176 02       		.uleb128 0x2
 3424 0177 18       		.uleb128 0x18
 3425 0178 00       		.byte	0
 3426 0179 00       		.byte	0
 3427 017a 18       		.uleb128 0x18
 3428 017b 05       		.uleb128 0x5
 3429 017c 00       		.byte	0
 3430 017d 03       		.uleb128 0x3
 3431 017e 0E       		.uleb128 0xe
 3432 017f 3A       		.uleb128 0x3a
 3433 0180 0B       		.uleb128 0xb
 3434 0181 3B       		.uleb128 0x3b
 3435 0182 05       		.uleb128 0x5
 3436 0183 49       		.uleb128 0x49
 3437 0184 13       		.uleb128 0x13
 3438 0185 02       		.uleb128 0x2
 3439 0186 18       		.uleb128 0x18
 3440 0187 00       		.byte	0
 3441 0188 00       		.byte	0
 3442 0189 19       		.uleb128 0x19
 3443 018a 01       		.uleb128 0x1
 3444 018b 01       		.byte	0x1
 3445 018c 49       		.uleb128 0x49
 3446 018d 13       		.uleb128 0x13
 3447 018e 01       		.uleb128 0x1
 3448 018f 13       		.uleb128 0x13
 3449 0190 00       		.byte	0
 3450 0191 00       		.byte	0
 3451 0192 1A       		.uleb128 0x1a
 3452 0193 21       		.uleb128 0x21
 3453 0194 00       		.byte	0
 3454 0195 49       		.uleb128 0x49
 3455 0196 13       		.uleb128 0x13
 3456 0197 2F       		.uleb128 0x2f
 3457 0198 0B       		.uleb128 0xb
 3458 0199 00       		.byte	0
 3459 019a 00       		.byte	0
 3460 019b 1B       		.uleb128 0x1b
 3461 019c 34       		.uleb128 0x34
 3462 019d 00       		.byte	0
 3463 019e 03       		.uleb128 0x3
 3464 019f 0E       		.uleb128 0xe
ARM GAS  C:\Users\hp\AppData\Local\Temp\ccOWzvx9.s 			page 98


 3465 01a0 3A       		.uleb128 0x3a
 3466 01a1 0B       		.uleb128 0xb
 3467 01a2 3B       		.uleb128 0x3b
 3468 01a3 0B       		.uleb128 0xb
 3469 01a4 49       		.uleb128 0x49
 3470 01a5 13       		.uleb128 0x13
 3471 01a6 02       		.uleb128 0x2
 3472 01a7 18       		.uleb128 0x18
 3473 01a8 00       		.byte	0
 3474 01a9 00       		.byte	0
 3475 01aa 1C       		.uleb128 0x1c
 3476 01ab 34       		.uleb128 0x34
 3477 01ac 00       		.byte	0
 3478 01ad 03       		.uleb128 0x3
 3479 01ae 0E       		.uleb128 0xe
 3480 01af 3A       		.uleb128 0x3a
 3481 01b0 0B       		.uleb128 0xb
 3482 01b1 3B       		.uleb128 0x3b
 3483 01b2 0B       		.uleb128 0xb
 3484 01b3 49       		.uleb128 0x49
 3485 01b4 13       		.uleb128 0x13
 3486 01b5 3F       		.uleb128 0x3f
 3487 01b6 19       		.uleb128 0x19
 3488 01b7 02       		.uleb128 0x2
 3489 01b8 18       		.uleb128 0x18
 3490 01b9 00       		.byte	0
 3491 01ba 00       		.byte	0
 3492 01bb 1D       		.uleb128 0x1d
 3493 01bc 2E       		.uleb128 0x2e
 3494 01bd 00       		.byte	0
 3495 01be 3F       		.uleb128 0x3f
 3496 01bf 19       		.uleb128 0x19
 3497 01c0 3C       		.uleb128 0x3c
 3498 01c1 19       		.uleb128 0x19
 3499 01c2 6E       		.uleb128 0x6e
 3500 01c3 0E       		.uleb128 0xe
 3501 01c4 03       		.uleb128 0x3
 3502 01c5 0E       		.uleb128 0xe
 3503 01c6 3A       		.uleb128 0x3a
 3504 01c7 0B       		.uleb128 0xb
 3505 01c8 3B       		.uleb128 0x3b
 3506 01c9 0B       		.uleb128 0xb
 3507 01ca 00       		.byte	0
 3508 01cb 00       		.byte	0
 3509 01cc 00       		.byte	0
 3510              		.section	.debug_loc,"",%progbits
 3511              	.Ldebug_loc0:
 3512              	.LLST0:
 3513 0000 00000000 		.4byte	.LVL0
 3514 0004 0C000000 		.4byte	.LVL1
 3515 0008 0100     		.2byte	0x1
 3516 000a 50       		.byte	0x50
 3517 000b 0C000000 		.4byte	.LVL1
 3518 000f AE000000 		.4byte	.LVL31
 3519 0013 0400     		.2byte	0x4
 3520 0015 F3       		.byte	0xf3
 3521 0016 01       		.uleb128 0x1
ARM GAS  C:\Users\hp\AppData\Local\Temp\ccOWzvx9.s 			page 99


 3522 0017 50       		.byte	0x50
 3523 0018 9F       		.byte	0x9f
 3524 0019 AE000000 		.4byte	.LVL31
 3525 001d B0000000 		.4byte	.LVL32
 3526 0021 0100     		.2byte	0x1
 3527 0023 50       		.byte	0x50
 3528 0024 B0000000 		.4byte	.LVL32
 3529 0028 DC000000 		.4byte	.LFE21
 3530 002c 0400     		.2byte	0x4
 3531 002e F3       		.byte	0xf3
 3532 002f 01       		.uleb128 0x1
 3533 0030 50       		.byte	0x50
 3534 0031 9F       		.byte	0x9f
 3535 0032 00000000 		.4byte	0
 3536 0036 00000000 		.4byte	0
 3537              	.LLST1:
 3538 003a 00000000 		.4byte	.LVL0
 3539 003e 74000000 		.4byte	.LVL19
 3540 0042 0100     		.2byte	0x1
 3541 0044 51       		.byte	0x51
 3542 0045 74000000 		.4byte	.LVL19
 3543 0049 AE000000 		.4byte	.LVL31
 3544 004d 0400     		.2byte	0x4
 3545 004f F3       		.byte	0xf3
 3546 0050 01       		.uleb128 0x1
 3547 0051 51       		.byte	0x51
 3548 0052 9F       		.byte	0x9f
 3549 0053 AE000000 		.4byte	.LVL31
 3550 0057 B3000000 		.4byte	.LVL33-1
 3551 005b 0100     		.2byte	0x1
 3552 005d 51       		.byte	0x51
 3553 005e B3000000 		.4byte	.LVL33-1
 3554 0062 DC000000 		.4byte	.LFE21
 3555 0066 0400     		.2byte	0x4
 3556 0068 F3       		.byte	0xf3
 3557 0069 01       		.uleb128 0x1
 3558 006a 51       		.byte	0x51
 3559 006b 9F       		.byte	0x9f
 3560 006c 00000000 		.4byte	0
 3561 0070 00000000 		.4byte	0
 3562              	.LLST2:
 3563 0074 00000000 		.4byte	.LVL0
 3564 0078 7C000000 		.4byte	.LVL22
 3565 007c 0100     		.2byte	0x1
 3566 007e 52       		.byte	0x52
 3567 007f 7C000000 		.4byte	.LVL22
 3568 0083 AE000000 		.4byte	.LVL31
 3569 0087 0400     		.2byte	0x4
 3570 0089 F3       		.byte	0xf3
 3571 008a 01       		.uleb128 0x1
 3572 008b 52       		.byte	0x52
 3573 008c 9F       		.byte	0x9f
 3574 008d AE000000 		.4byte	.LVL31
 3575 0091 B3000000 		.4byte	.LVL33-1
 3576 0095 0100     		.2byte	0x1
 3577 0097 52       		.byte	0x52
 3578 0098 B3000000 		.4byte	.LVL33-1
ARM GAS  C:\Users\hp\AppData\Local\Temp\ccOWzvx9.s 			page 100


 3579 009c DC000000 		.4byte	.LFE21
 3580 00a0 0400     		.2byte	0x4
 3581 00a2 F3       		.byte	0xf3
 3582 00a3 01       		.uleb128 0x1
 3583 00a4 52       		.byte	0x52
 3584 00a5 9F       		.byte	0x9f
 3585 00a6 00000000 		.4byte	0
 3586 00aa 00000000 		.4byte	0
 3587              	.LLST3:
 3588 00ae 00000000 		.4byte	.LVL0
 3589 00b2 94000000 		.4byte	.LVL27
 3590 00b6 0100     		.2byte	0x1
 3591 00b8 53       		.byte	0x53
 3592 00b9 94000000 		.4byte	.LVL27
 3593 00bd 98000000 		.4byte	.LVL28
 3594 00c1 0400     		.2byte	0x4
 3595 00c3 F3       		.byte	0xf3
 3596 00c4 01       		.uleb128 0x1
 3597 00c5 53       		.byte	0x53
 3598 00c6 9F       		.byte	0x9f
 3599 00c7 98000000 		.4byte	.LVL28
 3600 00cb 9A000000 		.4byte	.LVL29
 3601 00cf 0100     		.2byte	0x1
 3602 00d1 53       		.byte	0x53
 3603 00d2 9A000000 		.4byte	.LVL29
 3604 00d6 AE000000 		.4byte	.LVL31
 3605 00da 0400     		.2byte	0x4
 3606 00dc F3       		.byte	0xf3
 3607 00dd 01       		.uleb128 0x1
 3608 00de 53       		.byte	0x53
 3609 00df 9F       		.byte	0x9f
 3610 00e0 AE000000 		.4byte	.LVL31
 3611 00e4 B3000000 		.4byte	.LVL33-1
 3612 00e8 0100     		.2byte	0x1
 3613 00ea 53       		.byte	0x53
 3614 00eb B3000000 		.4byte	.LVL33-1
 3615 00ef DC000000 		.4byte	.LFE21
 3616 00f3 0400     		.2byte	0x4
 3617 00f5 F3       		.byte	0xf3
 3618 00f6 01       		.uleb128 0x1
 3619 00f7 53       		.byte	0x53
 3620 00f8 9F       		.byte	0x9f
 3621 00f9 00000000 		.4byte	0
 3622 00fd 00000000 		.4byte	0
 3623              	.LLST4:
 3624 0101 00000000 		.4byte	.LVL0
 3625 0105 AE000000 		.4byte	.LVL31
 3626 0109 0200     		.2byte	0x2
 3627 010b 91       		.byte	0x91
 3628 010c 00       		.sleb128 0
 3629 010d AE000000 		.4byte	.LVL31
 3630 0111 B6000000 		.4byte	.LVL34
 3631 0115 0200     		.2byte	0x2
 3632 0117 91       		.byte	0x91
 3633 0118 00       		.sleb128 0
 3634 0119 B6000000 		.4byte	.LVL34
 3635 011d DC000000 		.4byte	.LFE21
ARM GAS  C:\Users\hp\AppData\Local\Temp\ccOWzvx9.s 			page 101


 3636 0121 0200     		.2byte	0x2
 3637 0123 7D       		.byte	0x7d
 3638 0124 00       		.sleb128 0
 3639 0125 00000000 		.4byte	0
 3640 0129 00000000 		.4byte	0
 3641              	.LLST5:
 3642 012d 28000000 		.4byte	.LVL2
 3643 0131 2A000000 		.4byte	.LVL3
 3644 0135 0100     		.2byte	0x1
 3645 0137 50       		.byte	0x50
 3646 0138 30000000 		.4byte	.LVL4
 3647 013c 32000000 		.4byte	.LVL5
 3648 0140 0100     		.2byte	0x1
 3649 0142 50       		.byte	0x50
 3650 0143 3C000000 		.4byte	.LVL6
 3651 0147 3E000000 		.4byte	.LVL7
 3652 014b 0100     		.2byte	0x1
 3653 014d 50       		.byte	0x50
 3654 014e 44000000 		.4byte	.LVL8
 3655 0152 46000000 		.4byte	.LVL9
 3656 0156 0100     		.2byte	0x1
 3657 0158 50       		.byte	0x50
 3658 0159 50000000 		.4byte	.LVL10
 3659 015d 52000000 		.4byte	.LVL11
 3660 0161 0100     		.2byte	0x1
 3661 0163 50       		.byte	0x50
 3662 0164 58000000 		.4byte	.LVL12
 3663 0168 5A000000 		.4byte	.LVL13
 3664 016c 0100     		.2byte	0x1
 3665 016e 50       		.byte	0x50
 3666 016f 64000000 		.4byte	.LVL14
 3667 0173 66000000 		.4byte	.LVL15
 3668 0177 0100     		.2byte	0x1
 3669 0179 50       		.byte	0x50
 3670 017a 6C000000 		.4byte	.LVL16
 3671 017e 6E000000 		.4byte	.LVL17
 3672 0182 0100     		.2byte	0x1
 3673 0184 50       		.byte	0x50
 3674 0185 70000000 		.4byte	.LVL18
 3675 0189 8E000000 		.4byte	.LVL26
 3676 018d 0100     		.2byte	0x1
 3677 018f 50       		.byte	0x50
 3678 0190 98000000 		.4byte	.LVL28
 3679 0194 A4000000 		.4byte	.LVL30
 3680 0198 0100     		.2byte	0x1
 3681 019a 50       		.byte	0x50
 3682 019b 00000000 		.4byte	0
 3683 019f 00000000 		.4byte	0
 3684              	.LLST6:
 3685 01a3 74000000 		.4byte	.LVL19
 3686 01a7 78000000 		.4byte	.LVL20
 3687 01ab 0100     		.2byte	0x1
 3688 01ad 51       		.byte	0x51
 3689 01ae 00000000 		.4byte	0
 3690 01b2 00000000 		.4byte	0
 3691              	.LLST7:
 3692 01b6 7C000000 		.4byte	.LVL22
ARM GAS  C:\Users\hp\AppData\Local\Temp\ccOWzvx9.s 			page 102


 3693 01ba 84000000 		.4byte	.LVL23
 3694 01be 0100     		.2byte	0x1
 3695 01c0 52       		.byte	0x52
 3696 01c1 84000000 		.4byte	.LVL23
 3697 01c5 88000000 		.4byte	.LVL24
 3698 01c9 0100     		.2byte	0x1
 3699 01cb 51       		.byte	0x51
 3700 01cc 8A000000 		.4byte	.LVL25
 3701 01d0 AE000000 		.4byte	.LVL31
 3702 01d4 0100     		.2byte	0x1
 3703 01d6 52       		.byte	0x52
 3704 01d7 00000000 		.4byte	0
 3705 01db 00000000 		.4byte	0
 3706              	.LLST8:
 3707 01df 78000000 		.4byte	.LVL20
 3708 01e3 7A000000 		.4byte	.LVL21
 3709 01e7 0100     		.2byte	0x1
 3710 01e9 51       		.byte	0x51
 3711 01ea 00000000 		.4byte	0
 3712 01ee 00000000 		.4byte	0
 3713              	.LLST9:
 3714 01f2 00000000 		.4byte	.LVL35
 3715 01f6 07000000 		.4byte	.LVL36-1
 3716 01fa 0100     		.2byte	0x1
 3717 01fc 50       		.byte	0x50
 3718 01fd 07000000 		.4byte	.LVL36-1
 3719 0201 4C000000 		.4byte	.LFE22
 3720 0205 0400     		.2byte	0x4
 3721 0207 F3       		.byte	0xf3
 3722 0208 01       		.uleb128 0x1
 3723 0209 50       		.byte	0x50
 3724 020a 9F       		.byte	0x9f
 3725 020b 00000000 		.4byte	0
 3726 020f 00000000 		.4byte	0
 3727              	.LLST10:
 3728 0213 0A000000 		.4byte	.LVL37
 3729 0217 40000000 		.4byte	.LVL40
 3730 021b 0100     		.2byte	0x1
 3731 021d 56       		.byte	0x56
 3732 021e 00000000 		.4byte	0
 3733 0222 00000000 		.4byte	0
 3734              	.LLST11:
 3735 0226 00000000 		.4byte	.LVL41
 3736 022a 82000000 		.4byte	.LVL42
 3737 022e 0100     		.2byte	0x1
 3738 0230 50       		.byte	0x50
 3739 0231 82000000 		.4byte	.LVL42
 3740 0235 DC000000 		.4byte	.LFE19
 3741 0239 0400     		.2byte	0x4
 3742 023b F3       		.byte	0xf3
 3743 023c 01       		.uleb128 0x1
 3744 023d 50       		.byte	0x50
 3745 023e 9F       		.byte	0x9f
 3746 023f 00000000 		.4byte	0
 3747 0243 00000000 		.4byte	0
 3748              	.LLST12:
 3749 0247 08000000 		.4byte	.LVL53
ARM GAS  C:\Users\hp\AppData\Local\Temp\ccOWzvx9.s 			page 103


 3750 024b B2000000 		.4byte	.LVL57
 3751 024f 0100     		.2byte	0x1
 3752 0251 56       		.byte	0x56
 3753 0252 00000000 		.4byte	0
 3754 0256 00000000 		.4byte	0
 3755              	.LLST13:
 3756 025a 08000000 		.4byte	.LVL61
 3757 025e CE000000 		.4byte	.LVL64
 3758 0262 0100     		.2byte	0x1
 3759 0264 56       		.byte	0x56
 3760 0265 00000000 		.4byte	0
 3761 0269 00000000 		.4byte	0
 3762              	.LLST14:
 3763 026d 00000000 		.4byte	.LVL65
 3764 0271 0A000000 		.4byte	.LVL67
 3765 0275 0100     		.2byte	0x1
 3766 0277 50       		.byte	0x50
 3767 0278 0A000000 		.4byte	.LVL67
 3768 027c 18000000 		.4byte	.LFE4
 3769 0280 0400     		.2byte	0x4
 3770 0282 F3       		.byte	0xf3
 3771 0283 01       		.uleb128 0x1
 3772 0284 50       		.byte	0x50
 3773 0285 9F       		.byte	0x9f
 3774 0286 00000000 		.4byte	0
 3775 028a 00000000 		.4byte	0
 3776              	.LLST15:
 3777 028e 08000000 		.4byte	.LVL66
 3778 0292 10000000 		.4byte	.LVL68
 3779 0296 0100     		.2byte	0x1
 3780 0298 53       		.byte	0x53
 3781 0299 10000000 		.4byte	.LVL68
 3782 029d 18000000 		.4byte	.LFE4
 3783 02a1 0100     		.2byte	0x1
 3784 02a3 50       		.byte	0x50
 3785 02a4 00000000 		.4byte	0
 3786 02a8 00000000 		.4byte	0
 3787              	.LLST16:
 3788 02ac 00000000 		.4byte	.LVL69
 3789 02b0 0C000000 		.4byte	.LVL71
 3790 02b4 0100     		.2byte	0x1
 3791 02b6 50       		.byte	0x50
 3792 02b7 0C000000 		.4byte	.LVL71
 3793 02bb 18000000 		.4byte	.LFE5
 3794 02bf 0400     		.2byte	0x4
 3795 02c1 F3       		.byte	0xf3
 3796 02c2 01       		.uleb128 0x1
 3797 02c3 50       		.byte	0x50
 3798 02c4 9F       		.byte	0x9f
 3799 02c5 00000000 		.4byte	0
 3800 02c9 00000000 		.4byte	0
 3801              	.LLST17:
 3802 02cd 08000000 		.4byte	.LVL70
 3803 02d1 0E000000 		.4byte	.LVL72
 3804 02d5 0100     		.2byte	0x1
 3805 02d7 53       		.byte	0x53
 3806 02d8 0E000000 		.4byte	.LVL72
ARM GAS  C:\Users\hp\AppData\Local\Temp\ccOWzvx9.s 			page 104


 3807 02dc 18000000 		.4byte	.LFE5
 3808 02e0 0100     		.2byte	0x1
 3809 02e2 50       		.byte	0x50
 3810 02e3 00000000 		.4byte	0
 3811 02e7 00000000 		.4byte	0
 3812              	.LLST18:
 3813 02eb 00000000 		.4byte	.LVL73
 3814 02ef 10000000 		.4byte	.LVL75
 3815 02f3 0100     		.2byte	0x1
 3816 02f5 50       		.byte	0x50
 3817 02f6 10000000 		.4byte	.LVL75
 3818 02fa 24000000 		.4byte	.LVL79
 3819 02fe 0100     		.2byte	0x1
 3820 0300 54       		.byte	0x54
 3821 0301 24000000 		.4byte	.LVL79
 3822 0305 74000000 		.4byte	.LFE6
 3823 0309 0600     		.2byte	0x6
 3824 030b F3       		.byte	0xf3
 3825 030c 03       		.uleb128 0x3
 3826 030d F5       		.byte	0xf5
 3827 030e 00       		.uleb128 0
 3828 030f 25       		.uleb128 0x25
 3829 0310 9F       		.byte	0x9f
 3830 0311 00000000 		.4byte	0
 3831 0315 00000000 		.4byte	0
 3832              	.LLST19:
 3833 0319 0A000000 		.4byte	.LVL74
 3834 031d 13000000 		.4byte	.LVL76-1
 3835 0321 0A00     		.2byte	0xa
 3836 0323 73       		.byte	0x73
 3837 0324 00       		.sleb128 0
 3838 0325 32       		.byte	0x32
 3839 0326 24       		.byte	0x24
 3840 0327 03       		.byte	0x3
 3841 0328 00000000 		.4byte	.LANCHOR0
 3842 032c 22       		.byte	0x22
 3843 032d 44000000 		.4byte	.LVL84
 3844 0331 56000000 		.4byte	.LVL86
 3845 0335 0100     		.2byte	0x1
 3846 0337 50       		.byte	0x50
 3847 0338 56000000 		.4byte	.LVL86
 3848 033c 58000000 		.4byte	.LVL87
 3849 0340 0700     		.2byte	0x7
 3850 0342 73       		.byte	0x73
 3851 0343 00       		.sleb128 0
 3852 0344 32       		.byte	0x32
 3853 0345 24       		.byte	0x24
 3854 0346 72       		.byte	0x72
 3855 0347 00       		.sleb128 0
 3856 0348 22       		.byte	0x22
 3857 0349 00000000 		.4byte	0
 3858 034d 00000000 		.4byte	0
 3859              	.LLST20:
 3860 0351 54000000 		.4byte	.LVL85
 3861 0355 58000000 		.4byte	.LVL87
 3862 0359 0200     		.2byte	0x2
 3863 035b 30       		.byte	0x30
ARM GAS  C:\Users\hp\AppData\Local\Temp\ccOWzvx9.s 			page 105


 3864 035c 9F       		.byte	0x9f
 3865 035d 5A000000 		.4byte	.LVL88
 3866 0361 74000000 		.4byte	.LFE6
 3867 0365 0100     		.2byte	0x1
 3868 0367 50       		.byte	0x50
 3869 0368 00000000 		.4byte	0
 3870 036c 00000000 		.4byte	0
 3871              	.LLST21:
 3872 0370 1C000000 		.4byte	.LVL77
 3873 0374 21000000 		.4byte	.LVL78-1
 3874 0378 0100     		.2byte	0x1
 3875 037a 50       		.byte	0x50
 3876 037b 24000000 		.4byte	.LVL79
 3877 037f 27000000 		.4byte	.LVL80-1
 3878 0383 0100     		.2byte	0x1
 3879 0385 50       		.byte	0x50
 3880 0386 27000000 		.4byte	.LVL80-1
 3881 038a 3E000000 		.4byte	.LVL82
 3882 038e 0100     		.2byte	0x1
 3883 0390 54       		.byte	0x54
 3884 0391 3E000000 		.4byte	.LVL82
 3885 0395 41000000 		.4byte	.LVL83-1
 3886 0399 0100     		.2byte	0x1
 3887 039b 50       		.byte	0x50
 3888 039c 58000000 		.4byte	.LVL87
 3889 03a0 5C000000 		.4byte	.LVL89
 3890 03a4 0100     		.2byte	0x1
 3891 03a6 54       		.byte	0x54
 3892 03a7 00000000 		.4byte	0
 3893 03ab 00000000 		.4byte	0
 3894              	.LLST22:
 3895 03af 06000000 		.4byte	.LVL90
 3896 03b3 14000000 		.4byte	.LVL92
 3897 03b7 0100     		.2byte	0x1
 3898 03b9 53       		.byte	0x53
 3899 03ba 00000000 		.4byte	0
 3900 03be 00000000 		.4byte	0
 3901              	.LLST23:
 3902 03c2 0C000000 		.4byte	.LVL91
 3903 03c6 16000000 		.4byte	.LVL93
 3904 03ca 0100     		.2byte	0x1
 3905 03cc 50       		.byte	0x50
 3906 03cd 18000000 		.4byte	.LVL94
 3907 03d1 24000000 		.4byte	.LFE7
 3908 03d5 0100     		.2byte	0x1
 3909 03d7 50       		.byte	0x50
 3910 03d8 00000000 		.4byte	0
 3911 03dc 00000000 		.4byte	0
 3912              	.LLST24:
 3913 03e0 00000000 		.4byte	.LVL95
 3914 03e4 24000000 		.4byte	.LVL99
 3915 03e8 0100     		.2byte	0x1
 3916 03ea 50       		.byte	0x50
 3917 03eb 24000000 		.4byte	.LVL99
 3918 03ef 30000000 		.4byte	.LFE10
 3919 03f3 0400     		.2byte	0x4
 3920 03f5 F3       		.byte	0xf3
ARM GAS  C:\Users\hp\AppData\Local\Temp\ccOWzvx9.s 			page 106


 3921 03f6 01       		.uleb128 0x1
 3922 03f7 50       		.byte	0x50
 3923 03f8 9F       		.byte	0x9f
 3924 03f9 00000000 		.4byte	0
 3925 03fd 00000000 		.4byte	0
 3926              	.LLST25:
 3927 0401 10000000 		.4byte	.LVL96
 3928 0405 12000000 		.4byte	.LVL97
 3929 0409 0100     		.2byte	0x1
 3930 040b 53       		.byte	0x53
 3931 040c 1A000000 		.4byte	.LVL98
 3932 0410 30000000 		.4byte	.LFE10
 3933 0414 0100     		.2byte	0x1
 3934 0416 53       		.byte	0x53
 3935 0417 00000000 		.4byte	0
 3936 041b 00000000 		.4byte	0
 3937              	.LLST26:
 3938 041f 08000000 		.4byte	.LVL100
 3939 0423 14000000 		.4byte	.LVL102
 3940 0427 0100     		.2byte	0x1
 3941 0429 53       		.byte	0x53
 3942 042a 18000000 		.4byte	.LVL103
 3943 042e 1E000000 		.4byte	.LVL104
 3944 0432 0100     		.2byte	0x1
 3945 0434 53       		.byte	0x53
 3946 0435 00000000 		.4byte	0
 3947 0439 00000000 		.4byte	0
 3948              	.LLST27:
 3949 043d 12000000 		.4byte	.LVL107
 3950 0441 14000000 		.4byte	.LVL108
 3951 0445 0100     		.2byte	0x1
 3952 0447 50       		.byte	0x50
 3953 0448 18000000 		.4byte	.LVL109
 3954 044c 20000000 		.4byte	.LVL110
 3955 0450 0100     		.2byte	0x1
 3956 0452 52       		.byte	0x52
 3957 0453 20000000 		.4byte	.LVL110
 3958 0457 50000000 		.4byte	.LFE12
 3959 045b 0100     		.2byte	0x1
 3960 045d 50       		.byte	0x50
 3961 045e 00000000 		.4byte	0
 3962 0462 00000000 		.4byte	0
 3963              	.LLST28:
 3964 0466 08000000 		.4byte	.LVL105
 3965 046a 0E000000 		.4byte	.LVL106
 3966 046e 0100     		.2byte	0x1
 3967 0470 53       		.byte	0x53
 3968 0471 14000000 		.4byte	.LVL108
 3969 0475 26000000 		.4byte	.LVL111
 3970 0479 0100     		.2byte	0x1
 3971 047b 53       		.byte	0x53
 3972 047c 00000000 		.4byte	0
 3973 0480 00000000 		.4byte	0
 3974              	.LLST29:
 3975 0484 10000000 		.4byte	.LVL114
 3976 0488 1A000000 		.4byte	.LVL115
 3977 048c 0700     		.2byte	0x7
ARM GAS  C:\Users\hp\AppData\Local\Temp\ccOWzvx9.s 			page 107


 3978 048e 70       		.byte	0x70
 3979 048f 00       		.sleb128 0
 3980 0490 0A       		.byte	0xa
 3981 0491 FFFF     		.2byte	0xffff
 3982 0493 1A       		.byte	0x1a
 3983 0494 9F       		.byte	0x9f
 3984 0495 1A000000 		.4byte	.LVL115
 3985 0499 1C000000 		.4byte	.LVL116
 3986 049d 0100     		.2byte	0x1
 3987 049f 50       		.byte	0x50
 3988 04a0 24000000 		.4byte	.LVL118
 3989 04a4 2C000000 		.4byte	.LVL119
 3990 04a8 0700     		.2byte	0x7
 3991 04aa 70       		.byte	0x70
 3992 04ab 00       		.sleb128 0
 3993 04ac 0A       		.byte	0xa
 3994 04ad FFFF     		.2byte	0xffff
 3995 04af 1A       		.byte	0x1a
 3996 04b0 9F       		.byte	0x9f
 3997 04b1 2C000000 		.4byte	.LVL119
 3998 04b5 34000000 		.4byte	.LVL120
 3999 04b9 0100     		.2byte	0x1
 4000 04bb 53       		.byte	0x53
 4001 04bc 34000000 		.4byte	.LVL120
 4002 04c0 36000000 		.4byte	.LVL121
 4003 04c4 0100     		.2byte	0x1
 4004 04c6 50       		.byte	0x50
 4005 04c7 3C000000 		.4byte	.LVL123
 4006 04cb 44000000 		.4byte	.LVL124
 4007 04cf 0100     		.2byte	0x1
 4008 04d1 53       		.byte	0x53
 4009 04d2 44000000 		.4byte	.LVL124
 4010 04d6 6C000000 		.4byte	.LFE13
 4011 04da 0100     		.2byte	0x1
 4012 04dc 50       		.byte	0x50
 4013 04dd 00000000 		.4byte	0
 4014 04e1 00000000 		.4byte	0
 4015              	.LLST30:
 4016 04e5 08000000 		.4byte	.LVL112
 4017 04e9 0E000000 		.4byte	.LVL113
 4018 04ed 0100     		.2byte	0x1
 4019 04ef 53       		.byte	0x53
 4020 04f0 1C000000 		.4byte	.LVL116
 4021 04f4 22000000 		.4byte	.LVL117
 4022 04f8 0100     		.2byte	0x1
 4023 04fa 53       		.byte	0x53
 4024 04fb 36000000 		.4byte	.LVL121
 4025 04ff 38000000 		.4byte	.LVL122
 4026 0503 0100     		.2byte	0x1
 4027 0505 53       		.byte	0x53
 4028 0506 00000000 		.4byte	0
 4029 050a 00000000 		.4byte	0
 4030              	.LLST31:
 4031 050e 00000000 		.4byte	.LVL127
 4032 0512 06000000 		.4byte	.LVL128
 4033 0516 0100     		.2byte	0x1
 4034 0518 50       		.byte	0x50
ARM GAS  C:\Users\hp\AppData\Local\Temp\ccOWzvx9.s 			page 108


 4035 0519 06000000 		.4byte	.LVL128
 4036 051d 0E000000 		.4byte	.LVL129
 4037 0521 0100     		.2byte	0x1
 4038 0523 50       		.byte	0x50
 4039 0524 00000000 		.4byte	0
 4040 0528 00000000 		.4byte	0
 4041              	.LLST32:
 4042 052c 00000000 		.4byte	.LVL131
 4043 0530 06000000 		.4byte	.LVL132
 4044 0534 0100     		.2byte	0x1
 4045 0536 50       		.byte	0x50
 4046 0537 06000000 		.4byte	.LVL132
 4047 053b 08000000 		.4byte	.LVL133
 4048 053f 0600     		.2byte	0x6
 4049 0541 70       		.byte	0x70
 4050 0542 00       		.sleb128 0
 4051 0543 73       		.byte	0x73
 4052 0544 00       		.sleb128 0
 4053 0545 1C       		.byte	0x1c
 4054 0546 9F       		.byte	0x9f
 4055 0547 08000000 		.4byte	.LVL133
 4056 054b 0B000000 		.4byte	.LVL134-1
 4057 054f 0100     		.2byte	0x1
 4058 0551 50       		.byte	0x50
 4059 0552 00000000 		.4byte	0
 4060 0556 00000000 		.4byte	0
 4061              	.LLST33:
 4062 055a 00000000 		.4byte	.LVL137
 4063 055e 4E000000 		.4byte	.LVL144
 4064 0562 0100     		.2byte	0x1
 4065 0564 50       		.byte	0x50
 4066 0565 4E000000 		.4byte	.LVL144
 4067 0569 74000000 		.4byte	.LFE18
 4068 056d 0400     		.2byte	0x4
 4069 056f F3       		.byte	0xf3
 4070 0570 01       		.uleb128 0x1
 4071 0571 50       		.byte	0x50
 4072 0572 9F       		.byte	0x9f
 4073 0573 00000000 		.4byte	0
 4074 0577 00000000 		.4byte	0
 4075              	.LLST34:
 4076 057b 5E000000 		.4byte	.LVL145
 4077 057f 60000000 		.4byte	.LVL146
 4078 0583 0600     		.2byte	0x6
 4079 0585 73       		.byte	0x73
 4080 0586 00       		.sleb128 0
 4081 0587 70       		.byte	0x70
 4082 0588 00       		.sleb128 0
 4083 0589 1C       		.byte	0x1c
 4084 058a 9F       		.byte	0x9f
 4085 058b 60000000 		.4byte	.LVL146
 4086 058f 74000000 		.4byte	.LFE18
 4087 0593 0100     		.2byte	0x1
 4088 0595 50       		.byte	0x50
 4089 0596 00000000 		.4byte	0
 4090 059a 00000000 		.4byte	0
 4091              	.LLST35:
ARM GAS  C:\Users\hp\AppData\Local\Temp\ccOWzvx9.s 			page 109


 4092 059e 36000000 		.4byte	.LVL139
 4093 05a2 3C000000 		.4byte	.LVL140
 4094 05a6 0600     		.2byte	0x6
 4095 05a8 0C       		.byte	0xc
 4096 05a9 40420F00 		.4byte	0xf4240
 4097 05ad 9F       		.byte	0x9f
 4098 05ae 42000000 		.4byte	.LVL141
 4099 05b2 62000000 		.4byte	.LVL147
 4100 05b6 0100     		.2byte	0x1
 4101 05b8 54       		.byte	0x54
 4102 05b9 00000000 		.4byte	0
 4103 05bd 00000000 		.4byte	0
 4104              	.LLST36:
 4105 05c1 36000000 		.4byte	.LVL139
 4106 05c5 3C000000 		.4byte	.LVL140
 4107 05c9 0200     		.2byte	0x2
 4108 05cb 31       		.byte	0x31
 4109 05cc 9F       		.byte	0x9f
 4110 05cd 42000000 		.4byte	.LVL141
 4111 05d1 74000000 		.4byte	.LFE18
 4112 05d5 0100     		.2byte	0x1
 4113 05d7 51       		.byte	0x51
 4114 05d8 00000000 		.4byte	0
 4115 05dc 00000000 		.4byte	0
 4116              	.LLST37:
 4117 05e0 24000000 		.4byte	.LVL138
 4118 05e4 44000000 		.4byte	.LVL142
 4119 05e8 0100     		.2byte	0x1
 4120 05ea 53       		.byte	0x53
 4121 05eb 00000000 		.4byte	0
 4122 05ef 00000000 		.4byte	0
 4123              	.LLST38:
 4124 05f3 00000000 		.4byte	.LVL148
 4125 05f7 1D000000 		.4byte	.LVL149-1
 4126 05fb 0100     		.2byte	0x1
 4127 05fd 50       		.byte	0x50
 4128 05fe 1D000000 		.4byte	.LVL149-1
 4129 0602 48000000 		.4byte	.LVL153
 4130 0606 0400     		.2byte	0x4
 4131 0608 F3       		.byte	0xf3
 4132 0609 01       		.uleb128 0x1
 4133 060a 50       		.byte	0x50
 4134 060b 9F       		.byte	0x9f
 4135 060c 48000000 		.4byte	.LVL153
 4136 0610 4A000000 		.4byte	.LVL154
 4137 0614 0100     		.2byte	0x1
 4138 0616 50       		.byte	0x50
 4139 0617 4A000000 		.4byte	.LVL154
 4140 061b 60000000 		.4byte	.LFE20
 4141 061f 0400     		.2byte	0x4
 4142 0621 F3       		.byte	0xf3
 4143 0622 01       		.uleb128 0x1
 4144 0623 50       		.byte	0x50
 4145 0624 9F       		.byte	0x9f
 4146 0625 00000000 		.4byte	0
 4147 0629 00000000 		.4byte	0
 4148              	.LLST39:
ARM GAS  C:\Users\hp\AppData\Local\Temp\ccOWzvx9.s 			page 110


 4149 062d 00000000 		.4byte	.LVL148
 4150 0631 1D000000 		.4byte	.LVL149-1
 4151 0635 0100     		.2byte	0x1
 4152 0637 51       		.byte	0x51
 4153 0638 1D000000 		.4byte	.LVL149-1
 4154 063c 48000000 		.4byte	.LVL153
 4155 0640 0400     		.2byte	0x4
 4156 0642 F3       		.byte	0xf3
 4157 0643 01       		.uleb128 0x1
 4158 0644 51       		.byte	0x51
 4159 0645 9F       		.byte	0x9f
 4160 0646 48000000 		.4byte	.LVL153
 4161 064a 4D000000 		.4byte	.LVL155-1
 4162 064e 0100     		.2byte	0x1
 4163 0650 51       		.byte	0x51
 4164 0651 4D000000 		.4byte	.LVL155-1
 4165 0655 60000000 		.4byte	.LFE20
 4166 0659 0400     		.2byte	0x4
 4167 065b F3       		.byte	0xf3
 4168 065c 01       		.uleb128 0x1
 4169 065d 51       		.byte	0x51
 4170 065e 9F       		.byte	0x9f
 4171 065f 00000000 		.4byte	0
 4172 0663 00000000 		.4byte	0
 4173              	.LLST40:
 4174 0667 1C000000 		.4byte	.LVL159
 4175 066b 24000000 		.4byte	.LVL161
 4176 066f 0100     		.2byte	0x1
 4177 0671 54       		.byte	0x54
 4178 0672 00000000 		.4byte	0
 4179 0676 00000000 		.4byte	0
 4180              	.LLST41:
 4181 067a 1C000000 		.4byte	.LVL165
 4182 067e 24000000 		.4byte	.LVL167
 4183 0682 0100     		.2byte	0x1
 4184 0684 54       		.byte	0x54
 4185 0685 00000000 		.4byte	0
 4186 0689 00000000 		.4byte	0
 4187              	.LLST42:
 4188 068d 1C000000 		.4byte	.LVL171
 4189 0691 1F000000 		.4byte	.LVL172-1
 4190 0695 0100     		.2byte	0x1
 4191 0697 50       		.byte	0x50
 4192 0698 1F000000 		.4byte	.LVL172-1
 4193 069c 24000000 		.4byte	.LVL173
 4194 06a0 0100     		.2byte	0x1
 4195 06a2 54       		.byte	0x54
 4196 06a3 24000000 		.4byte	.LVL173
 4197 06a7 28000000 		.4byte	.LFE25
 4198 06ab 0100     		.2byte	0x1
 4199 06ad 50       		.byte	0x50
 4200 06ae 00000000 		.4byte	0
 4201 06b2 00000000 		.4byte	0
 4202              		.section	.debug_aranges,"",%progbits
 4203 0000 E4000000 		.4byte	0xe4
 4204 0004 0200     		.2byte	0x2
 4205 0006 00000000 		.4byte	.Ldebug_info0
ARM GAS  C:\Users\hp\AppData\Local\Temp\ccOWzvx9.s 			page 111


 4206 000a 04       		.byte	0x4
 4207 000b 00       		.byte	0
 4208 000c 0000     		.2byte	0
 4209 000e 0000     		.2byte	0
 4210 0010 00000000 		.4byte	.LFB21
 4211 0014 DC000000 		.4byte	.LFE21-.LFB21
 4212 0018 00000000 		.4byte	.LFB22
 4213 001c 4C000000 		.4byte	.LFE22-.LFB22
 4214 0020 00000000 		.4byte	.LFB19
 4215 0024 DC000000 		.4byte	.LFE19-.LFB19
 4216 0028 00000000 		.4byte	.LFB0
 4217 002c C4000000 		.4byte	.LFE0-.LFB0
 4218 0030 00000000 		.4byte	.LFB1
 4219 0034 D8000000 		.4byte	.LFE1-.LFB1
 4220 0038 00000000 		.4byte	.LFB2
 4221 003c 28000000 		.4byte	.LFE2-.LFB2
 4222 0040 00000000 		.4byte	.LFB3
 4223 0044 E4000000 		.4byte	.LFE3-.LFB3
 4224 0048 00000000 		.4byte	.LFB4
 4225 004c 18000000 		.4byte	.LFE4-.LFB4
 4226 0050 00000000 		.4byte	.LFB5
 4227 0054 18000000 		.4byte	.LFE5-.LFB5
 4228 0058 00000000 		.4byte	.LFB6
 4229 005c 74000000 		.4byte	.LFE6-.LFB6
 4230 0060 00000000 		.4byte	.LFB7
 4231 0064 24000000 		.4byte	.LFE7-.LFB7
 4232 0068 00000000 		.4byte	.LFB8
 4233 006c 10000000 		.4byte	.LFE8-.LFB8
 4234 0070 00000000 		.4byte	.LFB9
 4235 0074 10000000 		.4byte	.LFE9-.LFB9
 4236 0078 00000000 		.4byte	.LFB10
 4237 007c 30000000 		.4byte	.LFE10-.LFB10
 4238 0080 00000000 		.4byte	.LFB11
 4239 0084 48000000 		.4byte	.LFE11-.LFB11
 4240 0088 00000000 		.4byte	.LFB12
 4241 008c 50000000 		.4byte	.LFE12-.LFB12
 4242 0090 00000000 		.4byte	.LFB13
 4243 0094 6C000000 		.4byte	.LFE13-.LFB13
 4244 0098 00000000 		.4byte	.LFB14
 4245 009c 0C000000 		.4byte	.LFE14-.LFB14
 4246 00a0 00000000 		.4byte	.LFB15
 4247 00a4 0C000000 		.4byte	.LFE15-.LFB15
 4248 00a8 00000000 		.4byte	.LFB16
 4249 00ac 24000000 		.4byte	.LFE16-.LFB16
 4250 00b0 00000000 		.4byte	.LFB17
 4251 00b4 28000000 		.4byte	.LFE17-.LFB17
 4252 00b8 00000000 		.4byte	.LFB18
 4253 00bc 74000000 		.4byte	.LFE18-.LFB18
 4254 00c0 00000000 		.4byte	.LFB20
 4255 00c4 60000000 		.4byte	.LFE20-.LFB20
 4256 00c8 00000000 		.4byte	.LFB23
 4257 00cc 28000000 		.4byte	.LFE23-.LFB23
 4258 00d0 00000000 		.4byte	.LFB24
 4259 00d4 28000000 		.4byte	.LFE24-.LFB24
 4260 00d8 00000000 		.4byte	.LFB25
 4261 00dc 28000000 		.4byte	.LFE25-.LFB25
 4262 00e0 00000000 		.4byte	0
ARM GAS  C:\Users\hp\AppData\Local\Temp\ccOWzvx9.s 			page 112


 4263 00e4 00000000 		.4byte	0
 4264              		.section	.debug_ranges,"",%progbits
 4265              	.Ldebug_ranges0:
 4266 0000 00000000 		.4byte	.LFB21
 4267 0004 DC000000 		.4byte	.LFE21
 4268 0008 00000000 		.4byte	.LFB22
 4269 000c 4C000000 		.4byte	.LFE22
 4270 0010 00000000 		.4byte	.LFB19
 4271 0014 DC000000 		.4byte	.LFE19
 4272 0018 00000000 		.4byte	.LFB0
 4273 001c C4000000 		.4byte	.LFE0
 4274 0020 00000000 		.4byte	.LFB1
 4275 0024 D8000000 		.4byte	.LFE1
 4276 0028 00000000 		.4byte	.LFB2
 4277 002c 28000000 		.4byte	.LFE2
 4278 0030 00000000 		.4byte	.LFB3
 4279 0034 E4000000 		.4byte	.LFE3
 4280 0038 00000000 		.4byte	.LFB4
 4281 003c 18000000 		.4byte	.LFE4
 4282 0040 00000000 		.4byte	.LFB5
 4283 0044 18000000 		.4byte	.LFE5
 4284 0048 00000000 		.4byte	.LFB6
 4285 004c 74000000 		.4byte	.LFE6
 4286 0050 00000000 		.4byte	.LFB7
 4287 0054 24000000 		.4byte	.LFE7
 4288 0058 00000000 		.4byte	.LFB8
 4289 005c 10000000 		.4byte	.LFE8
 4290 0060 00000000 		.4byte	.LFB9
 4291 0064 10000000 		.4byte	.LFE9
 4292 0068 00000000 		.4byte	.LFB10
 4293 006c 30000000 		.4byte	.LFE10
 4294 0070 00000000 		.4byte	.LFB11
 4295 0074 48000000 		.4byte	.LFE11
 4296 0078 00000000 		.4byte	.LFB12
 4297 007c 50000000 		.4byte	.LFE12
 4298 0080 00000000 		.4byte	.LFB13
 4299 0084 6C000000 		.4byte	.LFE13
 4300 0088 00000000 		.4byte	.LFB14
 4301 008c 0C000000 		.4byte	.LFE14
 4302 0090 00000000 		.4byte	.LFB15
 4303 0094 0C000000 		.4byte	.LFE15
 4304 0098 00000000 		.4byte	.LFB16
 4305 009c 24000000 		.4byte	.LFE16
 4306 00a0 00000000 		.4byte	.LFB17
 4307 00a4 28000000 		.4byte	.LFE17
 4308 00a8 00000000 		.4byte	.LFB18
 4309 00ac 74000000 		.4byte	.LFE18
 4310 00b0 00000000 		.4byte	.LFB20
 4311 00b4 60000000 		.4byte	.LFE20
 4312 00b8 00000000 		.4byte	.LFB23
 4313 00bc 28000000 		.4byte	.LFE23
 4314 00c0 00000000 		.4byte	.LFB24
 4315 00c4 28000000 		.4byte	.LFE24
 4316 00c8 00000000 		.4byte	.LFB25
 4317 00cc 28000000 		.4byte	.LFE25
 4318 00d0 00000000 		.4byte	0
 4319 00d4 00000000 		.4byte	0
ARM GAS  C:\Users\hp\AppData\Local\Temp\ccOWzvx9.s 			page 113


 4320              		.section	.debug_line,"",%progbits
 4321              	.Ldebug_line0:
 4322 0000 4D030000 		.section	.debug_str,"MS",%progbits,1
 4322      02007900 
 4322      00000201 
 4322      FB0E0D00 
 4322      01010101 
 4323              	.LASF73:
 4324 0000 6164635F 		.ascii	"adc_CountsTo_uVolts\000"
 4324      436F756E 
 4324      7473546F 
 4324      5F75566F 
 4324      6C747300 
 4325              	.LASF11:
 4326 0014 75696E74 		.ascii	"uint16\000"
 4326      313600
 4327              	.LASF67:
 4328 001b 61646347 		.ascii	"adcGain\000"
 4328      61696E00 
 4329              	.LASF93:
 4330 0023 43794578 		.ascii	"CyExitCriticalSection\000"
 4330      69744372 
 4330      69746963 
 4330      616C5365 
 4330      6374696F 
 4331              	.LASF27:
 4332 0039 696E7075 		.ascii	"inputRange\000"
 4332      7452616E 
 4332      676500
 4333              	.LASF54:
 4334 0044 6164635F 		.ascii	"adc_ReadGCOR\000"
 4334      52656164 
 4334      47434F52 
 4334      00
 4335              	.LASF45:
 4336 0051 6164635F 		.ascii	"adc_SetBufferGain\000"
 4336      53657442 
 4336      75666665 
 4336      72476169 
 4336      6E00
 4337              	.LASF98:
 4338 0063 6164635F 		.ascii	"adc_theACLK_SetModeRegister\000"
 4338      74686541 
 4338      434C4B5F 
 4338      5365744D 
 4338      6F646552 
 4339              	.LASF95:
 4340 007f 6164635F 		.ascii	"adc_theACLK_SetDividerRegister\000"
 4340      74686541 
 4340      434C4B5F 
 4340      53657444 
 4340      69766964 
 4341              	.LASF24:
 4342 009e 67636F72 		.ascii	"gcor\000"
 4342      00
 4343              	.LASF82:
 4344 00a3 6164635F 		.ascii	"adc_gcor\000"
ARM GAS  C:\Users\hp\AppData\Local\Temp\ccOWzvx9.s 			page 114


 4344      67636F72 
 4344      00
 4345              	.LASF8:
 4346 00ac 6C6F6E67 		.ascii	"long long unsigned int\000"
 4346      206C6F6E 
 4346      6720756E 
 4346      7369676E 
 4346      65642069 
 4347              	.LASF29:
 4348 00c3 69646561 		.ascii	"idealOddDecGain\000"
 4348      6C4F6464 
 4348      44656347 
 4348      61696E00 
 4349              	.LASF96:
 4350 00d3 4379496E 		.ascii	"CyIntSetVector\000"
 4350      74536574 
 4350      56656374 
 4350      6F7200
 4351              	.LASF7:
 4352 00e2 6C6F6E67 		.ascii	"long long int\000"
 4352      206C6F6E 
 4352      6720696E 
 4352      7400
 4353              	.LASF1:
 4354 00f0 7369676E 		.ascii	"signed char\000"
 4354      65642063 
 4354      68617200 
 4355              	.LASF15:
 4356 00fc 696E7433 		.ascii	"int32\000"
 4356      3200
 4357              	.LASF36:
 4358 0102 6164635F 		.ascii	"adc_GainCompensation\000"
 4358      4761696E 
 4358      436F6D70 
 4358      656E7361 
 4358      74696F6E 
 4359              	.LASF5:
 4360 0117 6C6F6E67 		.ascii	"long int\000"
 4360      20696E74 
 4360      00
 4361              	.LASF44:
 4362 0120 6164635F 		.ascii	"adc_Stop\000"
 4362      53746F70 
 4362      00
 4363              	.LASF20:
 4364 0129 72656731 		.ascii	"reg16\000"
 4364      3600
 4365              	.LASF10:
 4366 012f 75696E74 		.ascii	"uint8\000"
 4366      3800
 4367              	.LASF92:
 4368 0135 43794465 		.ascii	"CyDelayUs\000"
 4368      6C617955 
 4368      7300
 4369              	.LASF17:
 4370 013f 646F7562 		.ascii	"double\000"
 4370      6C6500
ARM GAS  C:\Users\hp\AppData\Local\Temp\ccOWzvx9.s 			page 115


 4371              	.LASF72:
 4372 0146 566F6C74 		.ascii	"Volts\000"
 4372      7300
 4373              	.LASF88:
 4374 014c 6164635F 		.ascii	"adc_Offset\000"
 4374      4F666673 
 4374      657400
 4375              	.LASF43:
 4376 0157 6164635F 		.ascii	"adc_Start\000"
 4376      53746172 
 4376      7400
 4377              	.LASF12:
 4378 0161 75696E74 		.ascii	"uint32\000"
 4378      333200
 4379              	.LASF56:
 4380 0168 6164635F 		.ascii	"adc_StartConvert\000"
 4380      53746172 
 4380      74436F6E 
 4380      76657274 
 4380      00
 4381              	.LASF68:
 4382 0179 6164635F 		.ascii	"adc_CountsTo_mVolts\000"
 4382      436F756E 
 4382      7473546F 
 4382      5F6D566F 
 4382      6C747300 
 4383              	.LASF94:
 4384 018d 6164635F 		.ascii	"adc_Ext_CP_Clk_SetDividerRegister\000"
 4384      4578745F 
 4384      43505F43 
 4384      6C6B5F53 
 4384      65744469 
 4385              	.LASF38:
 4386 01af 76616C75 		.ascii	"value\000"
 4386      6500
 4387              	.LASF59:
 4388 01b5 7265744D 		.ascii	"retMode\000"
 4388      6F646500 
 4389              	.LASF71:
 4390 01bd 6164635F 		.ascii	"adc_CountsTo_Volts\000"
 4390      436F756E 
 4390      7473546F 
 4390      5F566F6C 
 4390      747300
 4391              	.LASF79:
 4392 01d0 6164635F 		.ascii	"adc_Read8\000"
 4392      52656164 
 4392      3800
 4393              	.LASF9:
 4394 01da 756E7369 		.ascii	"unsigned int\000"
 4394      676E6564 
 4394      20696E74 
 4394      00
 4395              	.LASF74:
 4396 01e7 75566F6C 		.ascii	"uVolts\000"
 4396      747300
 4397              	.LASF58:
ARM GAS  C:\Users\hp\AppData\Local\Temp\ccOWzvx9.s 			page 116


 4398 01ee 6164635F 		.ascii	"adc_IsEndConversion\000"
 4398      4973456E 
 4398      64436F6E 
 4398      76657273 
 4398      696F6E00 
 4399              	.LASF6:
 4400 0202 6C6F6E67 		.ascii	"long unsigned int\000"
 4400      20756E73 
 4400      69676E65 
 4400      6420696E 
 4400      7400
 4401              	.LASF62:
 4402 0214 6164635F 		.ascii	"adc_GetResult16\000"
 4402      47657452 
 4402      6573756C 
 4402      74313600 
 4403              	.LASF91:
 4404 0224 4379456E 		.ascii	"CyEnterCriticalSection\000"
 4404      74657243 
 4404      72697469 
 4404      63616C53 
 4404      65637469 
 4405              	.LASF4:
 4406 023b 73686F72 		.ascii	"short unsigned int\000"
 4406      7420756E 
 4406      7369676E 
 4406      65642069 
 4406      6E7400
 4407              	.LASF97:
 4408 024e 6164635F 		.ascii	"adc_Ext_CP_Clk_SetModeRegister\000"
 4408      4578745F 
 4408      43505F43 
 4408      6C6B5F53 
 4408      65744D6F 
 4409              	.LASF86:
 4410 026d 6164635F 		.ascii	"adc_started\000"
 4410      73746172 
 4410      74656400 
 4411              	.LASF13:
 4412 0279 696E7438 		.ascii	"int8\000"
 4412      00
 4413              	.LASF64:
 4414 027e 6164635F 		.ascii	"adc_SetOffset\000"
 4414      5365744F 
 4414      66667365 
 4414      7400
 4415              	.LASF34:
 4416 028c 67636F72 		.ascii	"gcorValue\000"
 4416      56616C75 
 4416      6500
 4417              	.LASF48:
 4418 0296 6164635F 		.ascii	"adc_SetCoherency\000"
 4418      53657443 
 4418      6F686572 
 4418      656E6379 
 4418      00
 4419              	.LASF70:
ARM GAS  C:\Users\hp\AppData\Local\Temp\ccOWzvx9.s 			page 117


 4420 02a7 6D566F6C 		.ascii	"mVolts\000"
 4420      747300
 4421              	.LASF32:
 4422 02ae 666C6173 		.ascii	"flash\000"
 4422      6800
 4423              	.LASF21:
 4424 02b4 72656733 		.ascii	"reg32\000"
 4424      3200
 4425              	.LASF16:
 4426 02ba 666C6F61 		.ascii	"float32\000"
 4426      74333200 
 4427              	.LASF23:
 4428 02c2 73697A65 		.ascii	"sizetype\000"
 4428      74797065 
 4428      00
 4429              	.LASF87:
 4430 02cb 6164635F 		.ascii	"adc_Config\000"
 4430      436F6E66 
 4430      696700
 4431              	.LASF22:
 4432 02d6 6C6F6E67 		.ascii	"long double\000"
 4432      20646F75 
 4432      626C6500 
 4433              	.LASF85:
 4434 02e2 6164635F 		.ascii	"adc_stopConversion\000"
 4434      73746F70 
 4434      436F6E76 
 4434      65727369 
 4434      6F6E00
 4435              	.LASF84:
 4436 02f5 6164635F 		.ascii	"adc_convDone\000"
 4436      636F6E76 
 4436      446F6E65 
 4436      00
 4437              	.LASF49:
 4438 0302 636F6865 		.ascii	"coherency\000"
 4438      72656E63 
 4438      7900
 4439              	.LASF99:
 4440 030c 4379496E 		.ascii	"CyIntSetPriority\000"
 4440      74536574 
 4440      5072696F 
 4440      72697479 
 4440      00
 4441              	.LASF46:
 4442 031d 6761696E 		.ascii	"gain\000"
 4442      00
 4443              	.LASF80:
 4444 0322 6164635F 		.ascii	"adc_Read16\000"
 4444      52656164 
 4444      313600
 4445              	.LASF0:
 4446 032d 666C6F61 		.ascii	"float\000"
 4446      7400
 4447              	.LASF41:
 4448 0333 6164635F 		.ascii	"adc_Init\000"
 4448      496E6974 
ARM GAS  C:\Users\hp\AppData\Local\Temp\ccOWzvx9.s 			page 118


 4448      00
 4449              	.LASF63:
 4450 033c 6164635F 		.ascii	"adc_GetResult32\000"
 4450      47657452 
 4450      6573756C 
 4450      74333200 
 4451              	.LASF19:
 4452 034c 72656738 		.ascii	"reg8\000"
 4452      00
 4453              	.LASF28:
 4454 0351 69646561 		.ascii	"idealDecGain\000"
 4454      6C446563 
 4454      4761696E 
 4454      00
 4455              	.LASF33:
 4456 035e 6E6F726D 		.ascii	"normalised\000"
 4456      616C6973 
 4456      656400
 4457              	.LASF90:
 4458 0369 43794861 		.ascii	"CyHalt\000"
 4458      6C7400
 4459              	.LASF2:
 4460 0370 756E7369 		.ascii	"unsigned char\000"
 4460      676E6564 
 4460      20636861 
 4460      7200
 4461              	.LASF83:
 4462 037e 6164635F 		.ascii	"adc_initVar\000"
 4462      696E6974 
 4462      56617200 
 4463              	.LASF3:
 4464 038a 73686F72 		.ascii	"short int\000"
 4464      7420696E 
 4464      7400
 4465              	.LASF42:
 4466 0394 6164635F 		.ascii	"adc_Enable\000"
 4466      456E6162 
 4466      6C6500
 4467              	.LASF35:
 4468 039f 67636F72 		.ascii	"gcorTmp\000"
 4468      546D7000 
 4469              	.LASF100:
 4470 03a7 474E5520 		.ascii	"GNU C11 5.4.1 20160609 (release) [ARM/embedded-5-br"
 4470      43313120 
 4470      352E342E 
 4470      31203230 
 4470      31363036 
 4471 03da 616E6368 		.ascii	"anch revision 237715] -mcpu=cortex-m3 -mthumb -g -O"
 4471      20726576 
 4471      6973696F 
 4471      6E203233 
 4471      37373135 
 4472 040d 67202D66 		.ascii	"g -ffunction-sections -ffat-lto-objects\000"
 4472      66756E63 
 4472      74696F6E 
 4472      2D736563 
 4472      74696F6E 
ARM GAS  C:\Users\hp\AppData\Local\Temp\ccOWzvx9.s 			page 119


 4473              	.LASF30:
 4474 0435 7265736F 		.ascii	"resolution\000"
 4474      6C757469 
 4474      6F6E00
 4475              	.LASF77:
 4476 0440 6164635F 		.ascii	"adc_SelectConfiguration\000"
 4476      53656C65 
 4476      6374436F 
 4476      6E666967 
 4476      75726174 
 4477              	.LASF26:
 4478 0458 6164635F 		.ascii	"adc_GCOR_STRUCT\000"
 4478      47434F52 
 4478      5F535452 
 4478      55435400 
 4479              	.LASF75:
 4480 0468 636F6566 		.ascii	"coefA\000"
 4480      4100
 4481              	.LASF76:
 4482 046e 636F6566 		.ascii	"coefB\000"
 4482      4200
 4483              	.LASF18:
 4484 0474 63686172 		.ascii	"char\000"
 4484      00
 4485              	.LASF55:
 4486 0479 6756616C 		.ascii	"gValue\000"
 4486      756500
 4487              	.LASF31:
 4488 0480 636F6E66 		.ascii	"config\000"
 4488      696700
 4489              	.LASF57:
 4490 0487 6164635F 		.ascii	"adc_StopConvert\000"
 4490      53746F70 
 4490      436F6E76 
 4490      65727400 
 4491              	.LASF25:
 4492 0497 6776616C 		.ascii	"gval\000"
 4492      00
 4493              	.LASF102:
 4494 049c 433A5C41 		.ascii	"C:\\Ari\\Rocketry\\Porpellent testing code\\PSOC\\D"
 4494      72695C52 
 4494      6F636B65 
 4494      7472795C 
 4494      506F7270 
 4495 04ca 53204144 		.ascii	"S ADC to UART.cydsn\000"
 4495      4320746F 
 4495      20554152 
 4495      542E6379 
 4495      64736E00 
 4496              	.LASF78:
 4497 04de 72657374 		.ascii	"restart\000"
 4497      61727400 
 4498              	.LASF52:
 4499 04e6 746D7056 		.ascii	"tmpValue\000"
 4499      616C7565 
 4499      00
 4500              	.LASF65:
ARM GAS  C:\Users\hp\AppData\Local\Temp\ccOWzvx9.s 			page 120


 4501 04ef 6F666673 		.ascii	"offset\000"
 4501      657400
 4502              	.LASF69:
 4503 04f6 61646343 		.ascii	"adcCounts\000"
 4503      6F756E74 
 4503      7300
 4504              	.LASF81:
 4505 0500 6164635F 		.ascii	"adc_Read32\000"
 4505      52656164 
 4505      333200
 4506              	.LASF89:
 4507 050b 6164635F 		.ascii	"adc_CountsPerVolt\000"
 4507      436F756E 
 4507      74735065 
 4507      72566F6C 
 4507      7400
 4508              	.LASF39:
 4509 051d 656E6162 		.ascii	"enableInterrupts\000"
 4509      6C65496E 
 4509      74657272 
 4509      75707473 
 4509      00
 4510              	.LASF51:
 4511 052e 73746174 		.ascii	"status\000"
 4511      757300
 4512              	.LASF53:
 4513 0535 6164635F 		.ascii	"adc_SetGCOR\000"
 4513      53657447 
 4513      434F5200 
 4514              	.LASF37:
 4515 0541 6164635F 		.ascii	"adc_SetDSMRef0Reg\000"
 4515      53657444 
 4515      534D5265 
 4515      66305265 
 4515      6700
 4516              	.LASF50:
 4517 0553 6761696E 		.ascii	"gainAdjust\000"
 4517      41646A75 
 4517      737400
 4518              	.LASF101:
 4519 055e 47656E65 		.ascii	"Generated_Source\\PSoC5\\adc.c\000"
 4519      72617465 
 4519      645F536F 
 4519      75726365 
 4519      5C50536F 
 4520              	.LASF14:
 4521 057b 696E7431 		.ascii	"int16\000"
 4521      3600
 4522              	.LASF66:
 4523 0581 6164635F 		.ascii	"adc_SetGain\000"
 4523      53657447 
 4523      61696E00 
 4524              	.LASF40:
 4525 058d 6164635F 		.ascii	"adc_InitConfig\000"
 4525      496E6974 
 4525      436F6E66 
 4525      696700
ARM GAS  C:\Users\hp\AppData\Local\Temp\ccOWzvx9.s 			page 121


 4526              	.LASF60:
 4527 059c 6164635F 		.ascii	"adc_GetResult8\000"
 4527      47657452 
 4527      6573756C 
 4527      743800
 4528              	.LASF47:
 4529 05ab 746D7052 		.ascii	"tmpReg\000"
 4529      656700
 4530              	.LASF61:
 4531 05b2 72657375 		.ascii	"result\000"
 4531      6C7400
 4532              		.ident	"GCC: (GNU Tools for ARM Embedded Processors) 5.4.1 20160609 (release) [ARM/embedded-5-bran
