ARM GAS  C:\Users\hp\AppData\Local\Temp\ccjJcRKn.s 			page 1


   1              		.syntax unified
   2              		.cpu cortex-m3
   3              		.fpu softvfp
   4              		.eabi_attribute 20, 1
   5              		.eabi_attribute 21, 1
   6              		.eabi_attribute 23, 3
   7              		.eabi_attribute 24, 1
   8              		.eabi_attribute 25, 1
   9              		.eabi_attribute 26, 1
  10              		.eabi_attribute 30, 1
  11              		.eabi_attribute 34, 1
  12              		.eabi_attribute 18, 4
  13              		.thumb
  14              		.syntax unified
  15              		.file	"main.c"
  16              		.text
  17              	.Ltext0:
  18              		.cfi_sections	.debug_frame
  19              		.section	.text.millis_isr,"ax",%progbits
  20              		.align	2
  21              		.global	millis_isr
  22              		.thumb
  23              		.thumb_func
  24              		.type	millis_isr, %function
  25              	millis_isr:
  26              	.LFB64:
  27              		.file 1 "main.c"
   1:main.c        **** /* ========================================
   2:main.c        ****  *
   3:main.c        ****  * Copyright YOUR COMPANY, THE YEAR
   4:main.c        ****  * All Rights Reserved
   5:main.c        ****  * UNPUBLISHED, LICENSED SOFTWARE.
   6:main.c        ****  *
   7:main.c        ****  * CONFIDENTIAL AND PROPRIETARY INFORMATION
   8:main.c        ****  * WHICH IS THE PROPERTY OF your company.
   9:main.c        ****  *
  10:main.c        ****  * ========================================
  11:main.c        **** */
  12:main.c        **** #include "project.h"
  13:main.c        **** #include <stdio.h>
  14:main.c        **** 
  15:main.c        **** volatile unsigned long _millis=0;
  16:main.c        **** 
  17:main.c        **** CY_ISR(millis_isr){
  28              		.loc 1 17 0
  29              		.cfi_startproc
  30              		@ args = 0, pretend = 0, frame = 0
  31              		@ frame_needed = 0, uses_anonymous_args = 0
  32 0000 08B5     		push	{r3, lr}
  33              		.cfi_def_cfa_offset 8
  34              		.cfi_offset 3, -8
  35              		.cfi_offset 14, -4
  18:main.c        ****     _millis++;
  36              		.loc 1 18 0
  37 0002 034A     		ldr	r2, .L3
  38 0004 1368     		ldr	r3, [r2]
  39 0006 0133     		adds	r3, r3, #1
ARM GAS  C:\Users\hp\AppData\Local\Temp\ccjJcRKn.s 			page 2


  40 0008 1360     		str	r3, [r2]
  19:main.c        ****     millis_interrupt_ClearPending();
  41              		.loc 1 19 0
  42 000a FFF7FEFF 		bl	millis_interrupt_ClearPending
  43              	.LVL0:
  44 000e 08BD     		pop	{r3, pc}
  45              	.L4:
  46              		.align	2
  47              	.L3:
  48 0010 00000000 		.word	.LANCHOR0
  49              		.cfi_endproc
  50              	.LFE64:
  51              		.size	millis_isr, .-millis_isr
  52              		.section	.text.millis,"ax",%progbits
  53              		.align	2
  54              		.global	millis
  55              		.thumb
  56              		.thumb_func
  57              		.type	millis, %function
  58              	millis:
  59              	.LFB65:
  20:main.c        **** }
  21:main.c        **** 
  22:main.c        **** unsigned long millis(){
  60              		.loc 1 22 0
  61              		.cfi_startproc
  62              		@ args = 0, pretend = 0, frame = 0
  63              		@ frame_needed = 0, uses_anonymous_args = 0
  64              		@ link register save eliminated.
  23:main.c        ****     return _millis;
  65              		.loc 1 23 0
  66 0000 014B     		ldr	r3, .L6
  67 0002 1868     		ldr	r0, [r3]
  24:main.c        **** }
  68              		.loc 1 24 0
  69 0004 7047     		bx	lr
  70              	.L7:
  71 0006 00BF     		.align	2
  72              	.L6:
  73 0008 00000000 		.word	.LANCHOR0
  74              		.cfi_endproc
  75              	.LFE65:
  76              		.size	millis, .-millis
  77              		.section	.text.main,"ax",%progbits
  78              		.align	2
  79              		.global	main
  80              		.thumb
  81              		.thumb_func
  82              		.type	main, %function
  83              	main:
  84              	.LFB66:
  25:main.c        ****     
  26:main.c        **** int main(void)
  27:main.c        **** {
  85              		.loc 1 27 0
  86              		.cfi_startproc
  87              		@ args = 0, pretend = 0, frame = 256
ARM GAS  C:\Users\hp\AppData\Local\Temp\ccjJcRKn.s 			page 3


  88              		@ frame_needed = 0, uses_anonymous_args = 0
  89 0000 30B5     		push	{r4, r5, lr}
  90              		.cfi_def_cfa_offset 12
  91              		.cfi_offset 4, -12
  92              		.cfi_offset 5, -8
  93              		.cfi_offset 14, -4
  94 0002 C3B0     		sub	sp, sp, #268
  95              		.cfi_def_cfa_offset 280
  96              	.LVL1:
  28:main.c        ****     int i=0;
  29:main.c        ****     int reading=0;
  30:main.c        ****     char text[256]="";
  97              		.loc 1 30 0
  98 0004 0021     		movs	r1, #0
  99 0006 0291     		str	r1, [sp, #8]
 100 0008 FC22     		movs	r2, #252
 101 000a 03A8     		add	r0, sp, #12
 102 000c FFF7FEFF 		bl	memset
 103              	.LVL2:
  31:main.c        ****     int samp_rate = 110; // How many samples from the adc before they get averaged
  32:main.c        ****     CyGlobalIntEnable; /* Enable global interrupts. */
 104              		.loc 1 32 0
 105              		.syntax unified
 106              	@ 32 "main.c" 1
 107 0010 62B6     		CPSIE   i
 108              	@ 0 "" 2
  33:main.c        ****     millis_interrupt_StartEx(millis_isr);
 109              		.loc 1 33 0
 110              		.thumb
 111              		.syntax unified
 112 0012 1448     		ldr	r0, .L13
 113 0014 FFF7FEFF 		bl	millis_interrupt_StartEx
 114              	.LVL3:
  34:main.c        ****     UART_Start();
 115              		.loc 1 34 0
 116 0018 FFF7FEFF 		bl	UART_Start
 117              	.LVL4:
  35:main.c        ****     adc_Start();
 118              		.loc 1 35 0
 119 001c FFF7FEFF 		bl	adc_Start
 120              	.LVL5:
  36:main.c        ****     adc_StartConvert();
 121              		.loc 1 36 0
 122 0020 FFF7FEFF 		bl	adc_StartConvert
 123              	.LVL6:
 124              	.L11:
  37:main.c        ****     /* Place your initialization/startup code here (e.g. MyInst_Start()) */
  38:main.c        **** 
  39:main.c        ****     for(;;)
  40:main.c        ****     {
  41:main.c        ****         reading = 0;
 125              		.loc 1 41 0
 126 0024 0025     		movs	r5, #0
  42:main.c        ****         //high = 0;
  43:main.c        ****         
  44:main.c        ****         for(i=0; i<samp_rate; i++){
 127              		.loc 1 44 0
ARM GAS  C:\Users\hp\AppData\Local\Temp\ccjJcRKn.s 			page 4


 128 0026 2C46     		mov	r4, r5
 129 0028 06E0     		b	.L9
 130              	.LVL7:
 131              	.L10:
  45:main.c        ****             adc_IsEndConversion(adc_WAIT_FOR_RESULT);
 132              		.loc 1 45 0 discriminator 3
 133 002a 0020     		movs	r0, #0
 134 002c FFF7FEFF 		bl	adc_IsEndConversion
 135              	.LVL8:
  46:main.c        ****             reading += adc_GetResult32();
 136              		.loc 1 46 0 discriminator 3
 137 0030 FFF7FEFF 		bl	adc_GetResult32
 138              	.LVL9:
 139 0034 0544     		add	r5, r5, r0
 140              	.LVL10:
  44:main.c        ****             adc_IsEndConversion(adc_WAIT_FOR_RESULT);
 141              		.loc 1 44 0 discriminator 3
 142 0036 0134     		adds	r4, r4, #1
 143              	.LVL11:
 144              	.L9:
  44:main.c        ****             adc_IsEndConversion(adc_WAIT_FOR_RESULT);
 145              		.loc 1 44 0 is_stmt 0 discriminator 1
 146 0038 6D2C     		cmp	r4, #109
 147 003a F6DD     		ble	.L10
  47:main.c        ****         }
  48:main.c        ****         reading /= samp_rate;
 148              		.loc 1 48 0 is_stmt 1
 149 003c 0A4C     		ldr	r4, .L13+4
 150              	.LVL12:
 151 003e 84FB0534 		smull	r3, r4, r4, r5
 152 0042 ED17     		asrs	r5, r5, #31
 153              	.LVL13:
 154 0044 C5EBA404 		rsb	r4, r5, r4, asr #2
 155              	.LVL14:
  49:main.c        ****         //reading = adc_CountsTo_uVolts(reading);
  50:main.c        ****         snprintf(text, 90, "%ld:%d\r\n", millis(), reading);
 156              		.loc 1 50 0
 157 0048 FFF7FEFF 		bl	millis
 158              	.LVL15:
 159 004c 0094     		str	r4, [sp]
 160 004e 0346     		mov	r3, r0
 161 0050 064A     		ldr	r2, .L13+8
 162 0052 5A21     		movs	r1, #90
 163 0054 02A8     		add	r0, sp, #8
 164 0056 FFF7FEFF 		bl	snprintf
 165              	.LVL16:
  51:main.c        ****         UART_PutString(text);
 166              		.loc 1 51 0
 167 005a 02A8     		add	r0, sp, #8
 168 005c FFF7FEFF 		bl	UART_PutString
 169              	.LVL17:
  52:main.c        ****     }
 170              		.loc 1 52 0
 171 0060 E0E7     		b	.L11
 172              	.L14:
 173 0062 00BF     		.align	2
 174              	.L13:
ARM GAS  C:\Users\hp\AppData\Local\Temp\ccjJcRKn.s 			page 5


 175 0064 00000000 		.word	millis_isr
 176 0068 95204F09 		.word	156180629
 177 006c 00000000 		.word	.LC0
 178              		.cfi_endproc
 179              	.LFE66:
 180              		.size	main, .-main
 181              		.global	_millis
 182              		.section	.rodata.str1.4,"aMS",%progbits,1
 183              		.align	2
 184              	.LC0:
 185 0000 256C643A 		.ascii	"%ld:%d\015\012\000"
 185      25640D0A 
 185      00
 186              		.bss
 187              		.align	2
 188              		.set	.LANCHOR0,. + 0
 189              		.type	_millis, %object
 190              		.size	_millis, 4
 191              	_millis:
 192 0000 00000000 		.space	4
 193              		.text
 194              	.Letext0:
 195              		.file 2 "c:\\program files (x86)\\cypress\\psoc creator\\4.1\\psoc creator\\import\\gnu\\arm\\5.4.
 196              		.file 3 "c:\\program files (x86)\\cypress\\psoc creator\\4.1\\psoc creator\\import\\gnu\\arm\\5.4.
 197              		.file 4 "Generated_Source\\PSoC5/core_cm3.h"
 198              		.file 5 "Generated_Source\\PSoC5/millis_interrupt.h"
 199              		.file 6 "Generated_Source\\PSoC5/UART.h"
 200              		.file 7 "Generated_Source\\PSoC5/adc.h"
 201              		.file 8 "c:\\program files (x86)\\cypress\\psoc creator\\4.1\\psoc creator\\import\\gnu\\arm\\5.4.